	.text
	.file	"main.cc"
	.file	1 "/usr/local/include/benchmark" "benchmark.h"
	.file	2 "main.cc"
	.file	3 "/usr/lib/gcc/x86_64-linux-gnu/6.3.0/../../../../include/c++/6.3.0/ext" "concurrence.h"
	.file	4 "/usr/lib/gcc/x86_64-linux-gnu/6.3.0/../../../../include/c++/6.3.0/bits" "stl_tree.h"
	.file	5 "/usr/local/lib/clang/6.0.0/include" "stddef.h"
	.file	6 "/usr/lib/gcc/x86_64-linux-gnu/6.3.0/../../../../include/c++/6.3.0/bits" "alloc_traits.h"
	.file	7 "/usr/lib/gcc/x86_64-linux-gnu/6.3.0/../../../../include/c++/6.3.0/ext" "new_allocator.h"
	.file	8 "/usr/lib/gcc/x86_64-linux-gnu/6.3.0/../../../../include/x86_64-linux-gnu/c++/6.3.0/bits" "c++config.h"
	.file	9 "/usr/lib/gcc/x86_64-linux-gnu/6.3.0/../../../../include/x86_64-linux-gnu/c++/6.3.0/bits" "c++allocator.h"
	.file	10 "/usr/lib/gcc/x86_64-linux-gnu/6.3.0/../../../../include/c++/6.3.0/bits" "allocator.h"
	.file	11 "/usr/lib/gcc/x86_64-linux-gnu/6.3.0/../../../../include/c++/6.3.0/ext" "alloc_traits.h"
	.file	12 "/usr/lib/gcc/x86_64-linux-gnu/6.3.0/../../../../include/c++/6.3.0/bits" "stl_vector.h"
	.file	13 "/usr/lib/gcc/x86_64-linux-gnu/6.3.0/../../../../include/c++/6.3.0" "type_traits"
	.file	14 "/usr/lib/gcc/x86_64-linux-gnu/6.3.0/../../../../include/c++/6.3.0/bits" "stl_pair.h"
	.file	15 "/usr/lib/gcc/x86_64-linux-gnu/6.3.0/../../../../include/c++/6.3.0/ext" "aligned_buffer.h"
	.file	16 "/usr/lib/gcc/x86_64-linux-gnu/6.3.0/../../../../include/c++/6.3.0/bits" "stl_function.h"
	.file	17 "/usr/lib/gcc/x86_64-linux-gnu/6.3.0/../../../../include/c++/6.3.0/bits" "stl_map.h"
	.file	18 "/usr/lib/gcc/x86_64-linux-gnu/6.3.0/../../../../include/c++/6.3.0/bits" "stringfwd.h"
	.file	19 "/usr/lib/gcc/x86_64-linux-gnu/6.3.0/../../../../include/c++/6.3.0/debug" "debug.h"
	.file	20 "/usr/include" "stdlib.h"
	.file	21 "/usr/lib/gcc/x86_64-linux-gnu/6.3.0/../../../../include/c++/6.3.0" "cstdlib"
	.file	22 "/usr/lib/gcc/x86_64-linux-gnu/6.3.0/../../../../include/c++/6.3.0/bits" "exception_ptr.h"
	.file	23 "/usr/local/lib/clang/6.0.0/include" "__stddef_max_align_t.h"
	.file	24 "/usr/lib/gcc/x86_64-linux-gnu/6.3.0/../../../../include/c++/6.3.0" "cstddef"
	.file	25 "/usr/include" "wchar.h"
	.file	26 "/usr/lib/gcc/x86_64-linux-gnu/6.3.0/../../../../include/c++/6.3.0" "cwchar"
	.file	27 "/usr/include" "stdio.h"
	.file	28 "/usr/include" "stdint.h"
	.file	29 "/usr/lib/gcc/x86_64-linux-gnu/6.3.0/../../../../include/c++/6.3.0" "cstdint"
	.file	30 "/usr/lib/gcc/x86_64-linux-gnu/6.3.0/../../../../include/c++/6.3.0" "clocale"
	.file	31 "/usr/include" "locale.h"
	.file	32 "/usr/include" "ctype.h"
	.file	33 "/usr/lib/gcc/x86_64-linux-gnu/6.3.0/../../../../include/c++/6.3.0" "cctype"
	.file	34 "/usr/lib/gcc/x86_64-linux-gnu/6.3.0/../../../../include/c++/6.3.0" "cstdio"
	.file	35 "/usr/include" "_G_config.h"
	.file	36 "/usr/lib/gcc/x86_64-linux-gnu/6.3.0/../../../../include/c++/6.3.0/bits" "shared_ptr_base.h"
	.section	.text.startup,"ax",@progbits
	.p2align	4, 0x90         # -- Begin function __cxx_global_var_init
	.type	__cxx_global_var_init,@function
__cxx_global_var_init:                  # @__cxx_global_var_init
.Lfunc_begin0:
	.loc	1 289 0                 # /usr/local/include/benchmark/benchmark.h:289:0
	.cfi_startproc
# %bb.0:
	pushq	%rbp
	.cfi_def_cfa_offset 16
	.cfi_offset %rbp, -16
	movq	%rsp, %rbp
	.cfi_def_cfa_register %rbp
.Ltmp0:
	.loc	1 289 50 prologue_end   # /usr/local/include/benchmark/benchmark.h:289:50
	callq	_ZN9benchmark8internal17InitializeStreamsEv
	movl	%eax, _ZN9benchmark8internalL18stream_init_anchorE
	popq	%rbp
	retq
.Ltmp1:
.Lfunc_end0:
	.size	__cxx_global_var_init, .Lfunc_end0-__cxx_global_var_init
	.cfi_endproc
                                        # -- End function
	.text
	.globl	_ZN5linux9get_errnoEv   # -- Begin function _ZN5linux9get_errnoEv
	.p2align	4, 0x90
	.type	_ZN5linux9get_errnoEv,@function
_ZN5linux9get_errnoEv:                  # @_ZN5linux9get_errnoEv
.Lfunc_begin1:
	.loc	2 15 0                  # main.cc:15:0
	.cfi_startproc
# %bb.0:
	pushq	%rbp
	.cfi_def_cfa_offset 16
	.cfi_offset %rbp, -16
	movq	%rsp, %rbp
	.cfi_def_cfa_register %rbp
.Ltmp2:
	.loc	2 16 16 prologue_end    # main.cc:16:16
	callq	__errno_location
	movl	(%rax), %eax
	.loc	2 16 9 is_stmt 0        # main.cc:16:9
	popq	%rbp
	retq
.Ltmp3:
.Lfunc_end1:
	.size	_ZN5linux9get_errnoEv, .Lfunc_end1-_ZN5linux9get_errnoEv
	.cfi_endproc
                                        # -- End function
	.section	.text.startup,"ax",@progbits
	.p2align	4, 0x90         # -- Begin function __cxx_global_var_init.1
	.type	__cxx_global_var_init.1,@function
__cxx_global_var_init.1:                # @__cxx_global_var_init.1
.Lfunc_begin2:
	.loc	2 200 0 is_stmt 1       # main.cc:200:0
	.cfi_startproc
	.cfi_personality 3, __gxx_personality_v0
	.cfi_lsda 3, .Lexception0
# %bb.0:
	pushq	%rbp
	.cfi_def_cfa_offset 16
	.cfi_offset %rbp, -16
	movq	%rsp, %rbp
	.cfi_def_cfa_register %rbp
.Ltmp7:
	.loc	2 200 5 prologue_end    # main.cc:200:5
	subq	$32, %rsp
	movl	$200, %eax
	movl	%eax, %edi
	callq	_Znwm
	movq	%rax, %rdi
	movq	%rax, %rcx
.Ltmp4:
	movl	$.L.str, %edx
	movl	%edx, %esi
	movl	$_ZL9BM_vectorI6vectorIcSaIcEEEvRN9benchmark5StateE, %edx
                                        # kill: def %rdx killed %edx
	movq	%rdi, -24(%rbp)         # 8-byte Spill
	movq	%rax, %rdi
	movq	%rcx, -32(%rbp)         # 8-byte Spill
	callq	_ZN9benchmark8internal17FunctionBenchmarkC2EPKcPFvRNS_5StateEE
.Ltmp5:
	jmp	.LBB2_1
.LBB2_1:
	movq	-32(%rbp), %rax         # 8-byte Reload
	movq	%rax, %rdi
	callq	_ZN9benchmark8internal25RegisterBenchmarkInternalEPNS0_9BenchmarkE
	movl	$8, %esi
	movl	$134217728, %edx        # imm = 0x8000000
	.loc	2 200 91 is_stmt 0      # main.cc:200:91
	movq	%rax, %rdi
	callq	_ZN9benchmark8internal9Benchmark5RangeEii
	movq	%rax, _ZL21_benchmark_2BM_vector
	.loc	2 200 114               # main.cc:200:114
	addq	$32, %rsp
	popq	%rbp
	retq
.LBB2_2:
.Ltmp6:
	.loc	2 200 5                 # main.cc:200:5
	movl	%edx, %ecx
	movq	%rax, -8(%rbp)
	movl	%ecx, -12(%rbp)
	movq	-24(%rbp), %rdi         # 8-byte Reload
	callq	_ZdlPv
# %bb.3:
	movq	-8(%rbp), %rdi
	callq	_Unwind_Resume
.Ltmp8:
.Lfunc_end2:
	.size	__cxx_global_var_init.1, .Lfunc_end2-__cxx_global_var_init.1
	.cfi_endproc
	.section	.gcc_except_table,"a",@progbits
	.p2align	2
GCC_except_table2:
.Lexception0:
	.byte	255                     # @LPStart Encoding = omit
	.byte	3                       # @TType Encoding = udata4
	.byte	41                      # @TType base offset
	.byte	3                       # Call site Encoding = udata4
	.byte	39                      # Call site table length
	.long	.Lfunc_begin2-.Lfunc_begin2 # >> Call Site 1 <<
	.long	.Ltmp4-.Lfunc_begin2    #   Call between .Lfunc_begin2 and .Ltmp4
	.long	0                       #     has no landing pad
	.byte	0                       #   On action: cleanup
	.long	.Ltmp4-.Lfunc_begin2    # >> Call Site 2 <<
	.long	.Ltmp5-.Ltmp4           #   Call between .Ltmp4 and .Ltmp5
	.long	.Ltmp6-.Lfunc_begin2    #     jumps to .Ltmp6
	.byte	0                       #   On action: cleanup
	.long	.Ltmp5-.Lfunc_begin2    # >> Call Site 3 <<
	.long	.Lfunc_end2-.Ltmp5      #   Call between .Ltmp5 and .Lfunc_end2
	.long	0                       #     has no landing pad
	.byte	0                       #   On action: cleanup
	.p2align	2
                                        # -- End function
	.text
	.p2align	4, 0x90         # -- Begin function _ZL9BM_vectorI6vectorIcSaIcEEEvRN9benchmark5StateE
	.type	_ZL9BM_vectorI6vectorIcSaIcEEEvRN9benchmark5StateE,@function
_ZL9BM_vectorI6vectorIcSaIcEEEvRN9benchmark5StateE: # @_ZL9BM_vectorI6vectorIcSaIcEEEvRN9benchmark5StateE
.Lfunc_begin3:
	.loc	2 186 0 is_stmt 1       # main.cc:186:0
	.cfi_startproc
	.cfi_personality 3, __gxx_personality_v0
	.cfi_lsda 3, .Lexception1
# %bb.0:
	pushq	%rbp
	.cfi_def_cfa_offset 16
	.cfi_offset %rbp, -16
	movq	%rsp, %rbp
	.cfi_def_cfa_register %rbp
	subq	$336, %rsp              # imm = 0x150
	leaq	-120(%rbp), %rax
	movq	%rdi, -136(%rbp)
.Ltmp21:
	.loc	2 187 21 prologue_end   # main.cc:187:21
	movq	-136(%rbp), %rdi
	movq	%rdi, -144(%rbp)
	.loc	2 187 19 is_stmt 0      # main.cc:187:19
	movq	-144(%rbp), %rdi
	movq	%rdi, -128(%rbp)
	movq	-128(%rbp), %rdi
	movq	%rax, -96(%rbp)
	movq	%rdi, -104(%rbp)
	movq	-96(%rbp), %rax
.Ltmp22:
	.loc	1 681 17 is_stmt 1      # /usr/local/include/benchmark/benchmark.h:681:17
	movq	-104(%rbp), %rdi
	testb	$1, 26(%rdi)
	movq	%rax, -256(%rbp)        # 8-byte Spill
	je	.LBB3_2
# %bb.1:
	.loc	1 0 17 is_stmt 0        # /usr/local/include/benchmark/benchmark.h:0:17
	xorl	%eax, %eax
	movl	%eax, %ecx
	.loc	1 681 17                # /usr/local/include/benchmark/benchmark.h:681:17
	movq	%rcx, -264(%rbp)        # 8-byte Spill
	jmp	.LBB3_3
.LBB3_2:
	.loc	1 681 43                # /usr/local/include/benchmark/benchmark.h:681:43
	movq	-104(%rbp), %rax
	.loc	1 681 47                # /usr/local/include/benchmark/benchmark.h:681:47
	movq	16(%rax), %rax
	movq	%rax, -264(%rbp)        # 8-byte Spill
.LBB3_3:
	.loc	1 681 17                # /usr/local/include/benchmark/benchmark.h:681:17
	movq	-264(%rbp), %rax        # 8-byte Reload
	.loc	1 681 9                 # /usr/local/include/benchmark/benchmark.h:681:9
	movq	-256(%rbp), %rcx        # 8-byte Reload
	movq	%rax, (%rcx)
	.loc	1 681 72                # /usr/local/include/benchmark/benchmark.h:681:72
	movq	-104(%rbp), %rax
	.loc	1 681 64                # /usr/local/include/benchmark/benchmark.h:681:64
	movq	%rax, 8(%rcx)
.Ltmp23:
	.loc	1 707 3 is_stmt 1       # /usr/local/include/benchmark/benchmark.h:707:3
	movq	-120(%rbp), %rax
	movq	-112(%rbp), %rdx
.Ltmp24:
	.loc	2 187 19                # main.cc:187:19
	movq	%rax, -160(%rbp)
	movq	%rdx, -152(%rbp)
	movq	-144(%rbp), %rax
	movq	%rax, -88(%rbp)
	movq	-88(%rbp), %rdi
.Ltmp25:
	.loc	1 710 3                 # /usr/local/include/benchmark/benchmark.h:710:3
	callq	_ZN9benchmark5State16StartKeepRunningEv
	leaq	-80(%rbp), %rax
	movq	%rax, -64(%rbp)
	movq	-64(%rbp), %rax
.Ltmp26:
	.loc	1 677 21                # /usr/local/include/benchmark/benchmark.h:677:21
	movq	$0, (%rax)
	.loc	1 677 33 is_stmt 0      # /usr/local/include/benchmark/benchmark.h:677:33
	movq	$0, 8(%rax)
.Ltmp27:
	.loc	1 711 3 is_stmt 1       # /usr/local/include/benchmark/benchmark.h:711:3
	movq	-80(%rbp), %rax
	movq	-72(%rbp), %rcx
.Ltmp28:
	.loc	2 187 19                # main.cc:187:19
	movq	%rax, -176(%rbp)
	movq	%rcx, -168(%rbp)
.LBB3_4:                                # =>This Loop Header: Depth=1
                                        #     Child Loop BB3_12 Depth 2
	.loc	2 0 19 is_stmt 0        # main.cc:0:19
	leaq	-176(%rbp), %rax
	leaq	-160(%rbp), %rcx
	movq	%rcx, -48(%rbp)
	movq	%rax, -56(%rbp)
	movq	-48(%rbp), %rax
.Ltmp29:
	.loc	1 696 9 is_stmt 1       # /usr/local/include/benchmark/benchmark.h:696:9
	cmpq	$0, (%rax)
.Ltmp30:
	.loc	1 696 9 is_stmt 0       # /usr/local/include/benchmark/benchmark.h:696:9
	movq	%rax, -272(%rbp)        # 8-byte Spill
	je	.LBB3_6
# %bb.5:                                #   in Loop: Header=BB3_4 Depth=1
.Ltmp31:
	.loc	1 696 55                # /usr/local/include/benchmark/benchmark.h:696:55
	movb	$1, -33(%rbp)
	jmp	.LBB3_7
.Ltmp32:
.LBB3_6:                                #   in Loop: Header=BB3_4 Depth=1
	.loc	1 697 5 is_stmt 1       # /usr/local/include/benchmark/benchmark.h:697:5
	movq	-272(%rbp), %rax        # 8-byte Reload
	movq	8(%rax), %rdi
	.loc	1 697 14 is_stmt 0      # /usr/local/include/benchmark/benchmark.h:697:14
	callq	_ZN9benchmark5State17FinishKeepRunningEv
	.loc	1 698 5 is_stmt 1       # /usr/local/include/benchmark/benchmark.h:698:5
	movb	$0, -33(%rbp)
.Ltmp33:
.LBB3_7:                                #   in Loop: Header=BB3_4 Depth=1
	.loc	2 187 19                # main.cc:187:19
	testb	$1, -33(%rbp)
	jne	.LBB3_8
	jmp	.LBB3_29
.LBB3_8:                                #   in Loop: Header=BB3_4 Depth=1
	.loc	2 0 19 is_stmt 0        # main.cc:0:19
	leaq	-216(%rbp), %rdi
	leaq	-160(%rbp), %rax
	movq	%rax, -32(%rbp)
.Ltmp34:
	#DEBUG_VALUE: c <- [%rdi+0]
	.loc	2 188 15 is_stmt 1      # main.cc:188:15
	callq	_ZN6vectorIcSaIcEEC2Ev
.Ltmp35:
	.loc	2 189 26                # main.cc:189:26
	movq	-136(%rbp), %rax
	movq	%rax, -16(%rbp)
	movq	$0, -24(%rbp)
	movq	-16(%rbp), %rax
.Ltmp36:
	.loc	1 561 5                 # /usr/local/include/benchmark/benchmark.h:561:5
	movq	%rax, %rdi
	addq	$32, %rdi
	movq	%rax, -280(%rbp)        # 8-byte Spill
	callq	_ZNKSt6vectorIiSaIiEE4sizeEv
	cmpq	-24(%rbp), %rax
	ja	.LBB3_10
# %bb.9:
	.loc	1 0 5 is_stmt 0         # /usr/local/include/benchmark/benchmark.h:0:5
	movabsq	$.L.str.8, %rdi
	movabsq	$.L.str.9, %rsi
	movl	$561, %edx              # imm = 0x231
	movabsq	$.L__PRETTY_FUNCTION__._ZNK9benchmark5State5rangeEm, %rcx
	.loc	1 561 5                 # /usr/local/include/benchmark/benchmark.h:561:5
	callq	__assert_fail
.LBB3_10:                               #   in Loop: Header=BB3_4 Depth=1
	.loc	1 562 12 is_stmt 1      # /usr/local/include/benchmark/benchmark.h:562:12
	movq	-280(%rbp), %rax        # 8-byte Reload
	addq	$32, %rax
	.loc	1 562 19 is_stmt 0      # /usr/local/include/benchmark/benchmark.h:562:19
	movq	-24(%rbp), %rsi
	.loc	1 562 12                # /usr/local/include/benchmark/benchmark.h:562:12
	movq	%rax, %rdi
	callq	_ZNKSt6vectorIiSaIiEEixEm
	movl	(%rax), %ecx
	movl	%ecx, -284(%rbp)        # 4-byte Spill
.Ltmp37:
# %bb.11:                               #   in Loop: Header=BB3_4 Depth=1
	.loc	2 189 22 is_stmt 1      # main.cc:189:22
	movl	-284(%rbp), %eax        # 4-byte Reload
	movl	%eax, -220(%rbp)
.LBB3_12:                               #   Parent Loop BB3_4 Depth=1
                                        # =>  This Inner Loop Header: Depth=2
.Ltmp38:
	.loc	2 189 42 is_stmt 0      # main.cc:189:42
	movl	-220(%rbp), %eax
	addl	$-1, %eax
	movl	%eax, -220(%rbp)
	.loc	2 189 46                # main.cc:189:46
	cmpl	$0, %eax
.Ltmp39:
	.loc	2 189 13                # main.cc:189:13
	jl	.LBB3_24
# %bb.13:                               #   in Loop: Header=BB3_12 Depth=2
.Ltmp40:
	.loc	2 191 42 is_stmt 1      # main.cc:191:42
	movb	-220(%rbp), %al
	.loc	2 191 36 is_stmt 0      # main.cc:191:36
	movb	%al, -237(%rbp)
.Ltmp9:
	leaq	-216(%rbp), %rdi
	leaq	-237(%rbp), %rsi
	.loc	2 191 23                # main.cc:191:23
	callq	_ZN6vectorIcSaIcEE12emplace_backIJcEEEvDpOT_
.Ltmp10:
	jmp	.LBB3_14
.LBB3_14:                               #   in Loop: Header=BB3_12 Depth=2
	.loc	2 192 17 is_stmt 1      # main.cc:192:17
	jmp	.LBB3_21
.Ltmp41:
.LBB3_15:
.Ltmp20:
	.loc	2 196 5                 # main.cc:196:5
	movl	%edx, %ecx
	movq	%rax, -232(%rbp)
	movl	%ecx, -236(%rbp)
	jmp	.LBB3_28
.LBB3_16:                               #   in Loop: Header=BB3_12 Depth=2
.Ltmp11:
.Ltmp42:
	.loc	2 196 5 is_stmt 0       # main.cc:196:5
	movl	%edx, %ecx
	movq	%rax, -232(%rbp)
	movl	%ecx, -236(%rbp)
# %bb.17:                               #   in Loop: Header=BB3_12 Depth=2
	.loc	2 192 17 is_stmt 1      # main.cc:192:17
	movl	-236(%rbp), %eax
	movl	$1, %ecx
	cmpl	%ecx, %eax
	jne	.LBB3_28
# %bb.18:                               #   in Loop: Header=BB3_12 Depth=2
	movq	-232(%rbp), %rax
	movq	%rax, %rdi
	movq	%rax, -296(%rbp)        # 8-byte Spill
	callq	__cxa_get_exception_ptr
	leaq	-248(%rbp), %rdi
.Ltmp43:
	.loc	2 192 40 is_stmt 0      # main.cc:192:40
	movq	%rdi, -304(%rbp)        # 8-byte Spill
	movq	%rax, %rsi
	callq	_ZNSt9bad_allocC2ERKS_
.Ltmp44:
	.loc	2 192 17                # main.cc:192:17
	movq	-296(%rbp), %rdi        # 8-byte Reload
	callq	__cxa_begin_catch
.Ltmp45:
	.loc	2 193 21 is_stmt 1      # main.cc:193:21
	movq	-136(%rbp), %rdi
	.loc	2 193 43 is_stmt 0      # main.cc:193:43
	movq	-304(%rbp), %rsi        # 8-byte Reload
	movq	%rdi, -312(%rbp)        # 8-byte Spill
	movq	%rsi, %rdi
	movq	%rax, -320(%rbp)        # 8-byte Spill
	callq	_ZNKSt9bad_alloc4whatEv
.Ltmp12:
	.loc	2 193 27                # main.cc:193:27
	movq	-312(%rbp), %rdi        # 8-byte Reload
	movq	%rax, %rsi
	callq	_ZN9benchmark5State13SkipWithErrorEPKc
.Ltmp13:
	jmp	.LBB3_19
.LBB3_19:                               #   in Loop: Header=BB3_12 Depth=2
	.loc	2 0 27                  # main.cc:0:27
	leaq	-248(%rbp), %rdi
	.loc	2 194 17 is_stmt 1      # main.cc:194:17
	callq	_ZNSt9bad_allocD1Ev
.Ltmp18:
	callq	__cxa_end_catch
.Ltmp19:
	jmp	.LBB3_20
.LBB3_20:                               #   in Loop: Header=BB3_12 Depth=2
	jmp	.LBB3_21
.Ltmp46:
.LBB3_21:                               #   in Loop: Header=BB3_12 Depth=2
	.loc	2 189 13                # main.cc:189:13
	jmp	.LBB3_12
.LBB3_22:
.Ltmp14:
.Ltmp47:
	.loc	2 196 5                 # main.cc:196:5
	movl	%edx, %ecx
	movq	%rax, -232(%rbp)
	movl	%ecx, -236(%rbp)
	leaq	-248(%rbp), %rdi
	.loc	2 194 17                # main.cc:194:17
	callq	_ZNSt9bad_allocD1Ev
.Ltmp15:
	callq	__cxa_end_catch
.Ltmp16:
	jmp	.LBB3_23
.LBB3_23:
	jmp	.LBB3_28
.Ltmp48:
.LBB3_24:                               #   in Loop: Header=BB3_4 Depth=1
	.loc	2 0 17 is_stmt 0        # main.cc:0:17
	leaq	-216(%rbp), %rdi
	.loc	2 195 9 is_stmt 1       # main.cc:195:9
	callq	_ZN6vectorIcSaIcEED2Ev
.Ltmp49:
# %bb.25:                               #   in Loop: Header=BB3_4 Depth=1
	.loc	2 0 9 is_stmt 0         # main.cc:0:9
	leaq	-160(%rbp), %rax
	movq	%rax, -8(%rbp)
	movq	-8(%rbp), %rax
.Ltmp50:
	.loc	1 689 5 is_stmt 1       # /usr/local/include/benchmark/benchmark.h:689:5
	cmpq	$0, (%rax)
	movq	%rax, -328(%rbp)        # 8-byte Spill
	ja	.LBB3_27
# %bb.26:
	.loc	1 0 5 is_stmt 0         # /usr/local/include/benchmark/benchmark.h:0:5
	movabsq	$.L.str.10, %rdi
	movabsq	$.L.str.9, %rsi
	movl	$689, %edx              # imm = 0x2B1
	movabsq	$.L__PRETTY_FUNCTION__._ZN9benchmark5State13StateIteratorppEv, %rcx
	.loc	1 689 5                 # /usr/local/include/benchmark/benchmark.h:689:5
	callq	__assert_fail
.LBB3_27:                               #   in Loop: Header=BB3_4 Depth=1
	.loc	1 690 5 is_stmt 1       # /usr/local/include/benchmark/benchmark.h:690:5
	movq	-328(%rbp), %rax        # 8-byte Reload
	movq	(%rax), %rcx
	addq	$-1, %rcx
	movq	%rcx, (%rax)
.Ltmp51:
	.loc	2 187 19                # main.cc:187:19
	jmp	.LBB3_4
.LBB3_28:
	.loc	2 0 19 is_stmt 0        # main.cc:0:19
	leaq	-216(%rbp), %rdi
.Ltmp52:
	.loc	2 195 9 is_stmt 1       # main.cc:195:9
	callq	_ZN6vectorIcSaIcEED2Ev
	jmp	.LBB3_30
.Ltmp53:
.LBB3_29:
	.loc	2 196 5                 # main.cc:196:5
	addq	$336, %rsp              # imm = 0x150
	popq	%rbp
	retq
.LBB3_30:
.Ltmp54:
	.loc	2 195 9                 # main.cc:195:9
	movq	-232(%rbp), %rdi
	callq	_Unwind_Resume
.LBB3_31:
.Ltmp17:
.Ltmp55:
	.loc	2 194 17                # main.cc:194:17
	movl	%edx, %ecx
	movq	%rax, %rdi
	movl	%ecx, -332(%rbp)        # 4-byte Spill
	callq	__clang_call_terminate
.Ltmp56:
.Lfunc_end3:
	.size	_ZL9BM_vectorI6vectorIcSaIcEEEvRN9benchmark5StateE, .Lfunc_end3-_ZL9BM_vectorI6vectorIcSaIcEEEvRN9benchmark5StateE
	.cfi_endproc
	.section	.gcc_except_table,"a",@progbits
	.p2align	2
GCC_except_table3:
.Lexception1:
	.byte	255                     # @LPStart Encoding = omit
	.byte	3                       # @TType Encoding = udata4
	.asciz	"\353\200"              # @TType base offset
	.byte	3                       # Call site Encoding = udata4
	.byte	91                      # Call site table length
	.long	.Lfunc_begin3-.Lfunc_begin3 # >> Call Site 1 <<
	.long	.Ltmp9-.Lfunc_begin3    #   Call between .Lfunc_begin3 and .Ltmp9
	.long	0                       #     has no landing pad
	.byte	0                       #   On action: cleanup
	.long	.Ltmp9-.Lfunc_begin3    # >> Call Site 2 <<
	.long	.Ltmp10-.Ltmp9          #   Call between .Ltmp9 and .Ltmp10
	.long	.Ltmp11-.Lfunc_begin3   #     jumps to .Ltmp11
	.byte	3                       #   On action: 2
	.long	.Ltmp10-.Lfunc_begin3   # >> Call Site 3 <<
	.long	.Ltmp12-.Ltmp10         #   Call between .Ltmp10 and .Ltmp12
	.long	0                       #     has no landing pad
	.byte	0                       #   On action: cleanup
	.long	.Ltmp12-.Lfunc_begin3   # >> Call Site 4 <<
	.long	.Ltmp13-.Ltmp12         #   Call between .Ltmp12 and .Ltmp13
	.long	.Ltmp14-.Lfunc_begin3   #     jumps to .Ltmp14
	.byte	0                       #   On action: cleanup
	.long	.Ltmp18-.Lfunc_begin3   # >> Call Site 5 <<
	.long	.Ltmp19-.Ltmp18         #   Call between .Ltmp18 and .Ltmp19
	.long	.Ltmp20-.Lfunc_begin3   #     jumps to .Ltmp20
	.byte	0                       #   On action: cleanup
	.long	.Ltmp15-.Lfunc_begin3   # >> Call Site 6 <<
	.long	.Ltmp16-.Ltmp15         #   Call between .Ltmp15 and .Ltmp16
	.long	.Ltmp17-.Lfunc_begin3   #     jumps to .Ltmp17
	.byte	5                       #   On action: 3
	.long	.Ltmp16-.Lfunc_begin3   # >> Call Site 7 <<
	.long	.Lfunc_end3-.Ltmp16     #   Call between .Ltmp16 and .Lfunc_end3
	.long	0                       #     has no landing pad
	.byte	0                       #   On action: cleanup
	.byte	0                       # >> Action Record 1 <<
                                        #   Cleanup
	.byte	0                       #   No further actions
	.byte	1                       # >> Action Record 2 <<
                                        #   Catch TypeInfo 1
	.byte	125                     #   Continue to action 1
	.byte	2                       # >> Action Record 3 <<
                                        #   Catch TypeInfo 2
	.byte	0                       #   No further actions
                                        # >> Catch TypeInfos <<
	.long	0                       # TypeInfo 2
	.long	_ZTISt9bad_alloc        # TypeInfo 1
	.p2align	2
                                        # -- End function
	.section	.text._ZN9benchmark8internal17FunctionBenchmarkC2EPKcPFvRNS_5StateEE,"axG",@progbits,_ZN9benchmark8internal17FunctionBenchmarkC2EPKcPFvRNS_5StateEE,comdat
	.weak	_ZN9benchmark8internal17FunctionBenchmarkC2EPKcPFvRNS_5StateEE # -- Begin function _ZN9benchmark8internal17FunctionBenchmarkC2EPKcPFvRNS_5StateEE
	.p2align	4, 0x90
	.type	_ZN9benchmark8internal17FunctionBenchmarkC2EPKcPFvRNS_5StateEE,@function
_ZN9benchmark8internal17FunctionBenchmarkC2EPKcPFvRNS_5StateEE: # @_ZN9benchmark8internal17FunctionBenchmarkC2EPKcPFvRNS_5StateEE
.Lfunc_begin4:
	.loc	1 935 0                 # /usr/local/include/benchmark/benchmark.h:935:0
	.cfi_startproc
# %bb.0:
	pushq	%rbp
	.cfi_def_cfa_offset 16
	.cfi_offset %rbp, -16
	movq	%rsp, %rbp
	.cfi_def_cfa_register %rbp
	subq	$48, %rsp
	movq	%rdi, -8(%rbp)
	movq	%rsi, -16(%rbp)
	movq	%rdx, -24(%rbp)
	movq	-8(%rbp), %rdx
.Ltmp57:
	.loc	1 935 38 prologue_end   # /usr/local/include/benchmark/benchmark.h:935:38
	movq	%rdx, %rsi
	.loc	1 935 19 is_stmt 0      # /usr/local/include/benchmark/benchmark.h:935:19
	movq	-16(%rbp), %rdi
	.loc	1 935 9                 # /usr/local/include/benchmark/benchmark.h:935:9
	movq	%rdi, -32(%rbp)         # 8-byte Spill
	movq	%rsi, %rdi
	movq	-32(%rbp), %rsi         # 8-byte Reload
	movq	%rdx, -40(%rbp)         # 8-byte Spill
	callq	_ZN9benchmark8internal9BenchmarkC2EPKc
	movabsq	$_ZTVN9benchmark8internal17FunctionBenchmarkE, %rdx
	addq	$16, %rdx
	.loc	1 935 38                # /usr/local/include/benchmark/benchmark.h:935:38
	movq	-40(%rbp), %rsi         # 8-byte Reload
	movq	%rdx, (%rsi)
	.loc	1 935 32                # /usr/local/include/benchmark/benchmark.h:935:32
	movq	-24(%rbp), %rdx
	.loc	1 935 26                # /usr/local/include/benchmark/benchmark.h:935:26
	movq	%rdx, 192(%rsi)
	.loc	1 935 39                # /usr/local/include/benchmark/benchmark.h:935:39
	addq	$48, %rsp
	popq	%rbp
	retq
.Ltmp58:
.Lfunc_end4:
	.size	_ZN9benchmark8internal17FunctionBenchmarkC2EPKcPFvRNS_5StateEE, .Lfunc_end4-_ZN9benchmark8internal17FunctionBenchmarkC2EPKcPFvRNS_5StateEE
	.cfi_endproc
                                        # -- End function
	.section	.text.startup,"ax",@progbits
	.p2align	4, 0x90         # -- Begin function __cxx_global_var_init.2
	.type	__cxx_global_var_init.2,@function
__cxx_global_var_init.2:                # @__cxx_global_var_init.2
.Lfunc_begin5:
	.loc	2 201 0 is_stmt 1       # main.cc:201:0
	.cfi_startproc
	.cfi_personality 3, __gxx_personality_v0
	.cfi_lsda 3, .Lexception2
# %bb.0:
	pushq	%rbp
	.cfi_def_cfa_offset 16
	.cfi_offset %rbp, -16
	movq	%rsp, %rbp
	.cfi_def_cfa_register %rbp
.Ltmp62:
	.loc	2 201 5 prologue_end    # main.cc:201:5
	subq	$32, %rsp
	movl	$200, %eax
	movl	%eax, %edi
	callq	_Znwm
	movq	%rax, %rdi
	movq	%rax, %rcx
.Ltmp59:
	movl	$.L.str.3, %edx
	movl	%edx, %esi
	movl	$_ZL9BM_vectorI6vectorIm8mreallocImEEEvRN9benchmark5StateE, %edx
                                        # kill: def %rdx killed %edx
	movq	%rdi, -24(%rbp)         # 8-byte Spill
	movq	%rax, %rdi
	movq	%rcx, -32(%rbp)         # 8-byte Spill
	callq	_ZN9benchmark8internal17FunctionBenchmarkC2EPKcPFvRNS_5StateEE
.Ltmp60:
	jmp	.LBB5_1
.LBB5_1:
	movq	-32(%rbp), %rax         # 8-byte Reload
	movq	%rax, %rdi
	callq	_ZN9benchmark8internal25RegisterBenchmarkInternalEPNS0_9BenchmarkE
	movl	$8, %esi
	movl	$134217728, %edx        # imm = 0x8000000
	.loc	2 201 100 is_stmt 0     # main.cc:201:100
	movq	%rax, %rdi
	callq	_ZN9benchmark8internal9Benchmark5RangeEii
	movq	%rax, _ZL21_benchmark_3BM_vector
	.loc	2 201 123               # main.cc:201:123
	addq	$32, %rsp
	popq	%rbp
	retq
.LBB5_2:
.Ltmp61:
	.loc	2 201 5                 # main.cc:201:5
	movl	%edx, %ecx
	movq	%rax, -8(%rbp)
	movl	%ecx, -12(%rbp)
	movq	-24(%rbp), %rdi         # 8-byte Reload
	callq	_ZdlPv
# %bb.3:
	movq	-8(%rbp), %rdi
	callq	_Unwind_Resume
.Ltmp63:
.Lfunc_end5:
	.size	__cxx_global_var_init.2, .Lfunc_end5-__cxx_global_var_init.2
	.cfi_endproc
	.section	.gcc_except_table,"a",@progbits
	.p2align	2
GCC_except_table5:
.Lexception2:
	.byte	255                     # @LPStart Encoding = omit
	.byte	3                       # @TType Encoding = udata4
	.byte	41                      # @TType base offset
	.byte	3                       # Call site Encoding = udata4
	.byte	39                      # Call site table length
	.long	.Lfunc_begin5-.Lfunc_begin5 # >> Call Site 1 <<
	.long	.Ltmp59-.Lfunc_begin5   #   Call between .Lfunc_begin5 and .Ltmp59
	.long	0                       #     has no landing pad
	.byte	0                       #   On action: cleanup
	.long	.Ltmp59-.Lfunc_begin5   # >> Call Site 2 <<
	.long	.Ltmp60-.Ltmp59         #   Call between .Ltmp59 and .Ltmp60
	.long	.Ltmp61-.Lfunc_begin5   #     jumps to .Ltmp61
	.byte	0                       #   On action: cleanup
	.long	.Ltmp60-.Lfunc_begin5   # >> Call Site 3 <<
	.long	.Lfunc_end5-.Ltmp60     #   Call between .Ltmp60 and .Lfunc_end5
	.long	0                       #     has no landing pad
	.byte	0                       #   On action: cleanup
	.p2align	2
                                        # -- End function
	.text
	.p2align	4, 0x90         # -- Begin function _ZL9BM_vectorI6vectorIm8mreallocImEEEvRN9benchmark5StateE
	.type	_ZL9BM_vectorI6vectorIm8mreallocImEEEvRN9benchmark5StateE,@function
_ZL9BM_vectorI6vectorIm8mreallocImEEEvRN9benchmark5StateE: # @_ZL9BM_vectorI6vectorIm8mreallocImEEEvRN9benchmark5StateE
.Lfunc_begin6:
	.loc	2 186 0 is_stmt 1       # main.cc:186:0
	.cfi_startproc
	.cfi_personality 3, __gxx_personality_v0
	.cfi_lsda 3, .Lexception3
# %bb.0:
	pushq	%rbp
	.cfi_def_cfa_offset 16
	.cfi_offset %rbp, -16
	movq	%rsp, %rbp
	.cfi_def_cfa_register %rbp
	subq	$336, %rsp              # imm = 0x150
	leaq	-120(%rbp), %rax
	movq	%rdi, -136(%rbp)
.Ltmp76:
	.loc	2 187 21 prologue_end   # main.cc:187:21
	movq	-136(%rbp), %rdi
	movq	%rdi, -144(%rbp)
	.loc	2 187 19 is_stmt 0      # main.cc:187:19
	movq	-144(%rbp), %rdi
	movq	%rdi, -128(%rbp)
	movq	-128(%rbp), %rdi
	movq	%rax, -96(%rbp)
	movq	%rdi, -104(%rbp)
	movq	-96(%rbp), %rax
.Ltmp77:
	.loc	1 681 17 is_stmt 1      # /usr/local/include/benchmark/benchmark.h:681:17
	movq	-104(%rbp), %rdi
	testb	$1, 26(%rdi)
	movq	%rax, -256(%rbp)        # 8-byte Spill
	je	.LBB6_2
# %bb.1:
	.loc	1 0 17 is_stmt 0        # /usr/local/include/benchmark/benchmark.h:0:17
	xorl	%eax, %eax
	movl	%eax, %ecx
	.loc	1 681 17                # /usr/local/include/benchmark/benchmark.h:681:17
	movq	%rcx, -264(%rbp)        # 8-byte Spill
	jmp	.LBB6_3
.LBB6_2:
	.loc	1 681 43                # /usr/local/include/benchmark/benchmark.h:681:43
	movq	-104(%rbp), %rax
	.loc	1 681 47                # /usr/local/include/benchmark/benchmark.h:681:47
	movq	16(%rax), %rax
	movq	%rax, -264(%rbp)        # 8-byte Spill
.LBB6_3:
	.loc	1 681 17                # /usr/local/include/benchmark/benchmark.h:681:17
	movq	-264(%rbp), %rax        # 8-byte Reload
	.loc	1 681 9                 # /usr/local/include/benchmark/benchmark.h:681:9
	movq	-256(%rbp), %rcx        # 8-byte Reload
	movq	%rax, (%rcx)
	.loc	1 681 72                # /usr/local/include/benchmark/benchmark.h:681:72
	movq	-104(%rbp), %rax
	.loc	1 681 64                # /usr/local/include/benchmark/benchmark.h:681:64
	movq	%rax, 8(%rcx)
.Ltmp78:
	.loc	1 707 3 is_stmt 1       # /usr/local/include/benchmark/benchmark.h:707:3
	movq	-120(%rbp), %rax
	movq	-112(%rbp), %rdx
.Ltmp79:
	.loc	2 187 19                # main.cc:187:19
	movq	%rax, -160(%rbp)
	movq	%rdx, -152(%rbp)
	movq	-144(%rbp), %rax
	movq	%rax, -88(%rbp)
	movq	-88(%rbp), %rdi
.Ltmp80:
	.loc	1 710 3                 # /usr/local/include/benchmark/benchmark.h:710:3
	callq	_ZN9benchmark5State16StartKeepRunningEv
	leaq	-80(%rbp), %rax
	movq	%rax, -64(%rbp)
	movq	-64(%rbp), %rax
.Ltmp81:
	.loc	1 677 21                # /usr/local/include/benchmark/benchmark.h:677:21
	movq	$0, (%rax)
	.loc	1 677 33 is_stmt 0      # /usr/local/include/benchmark/benchmark.h:677:33
	movq	$0, 8(%rax)
.Ltmp82:
	.loc	1 711 3 is_stmt 1       # /usr/local/include/benchmark/benchmark.h:711:3
	movq	-80(%rbp), %rax
	movq	-72(%rbp), %rcx
.Ltmp83:
	.loc	2 187 19                # main.cc:187:19
	movq	%rax, -176(%rbp)
	movq	%rcx, -168(%rbp)
.LBB6_4:                                # =>This Loop Header: Depth=1
                                        #     Child Loop BB6_12 Depth 2
	.loc	2 0 19 is_stmt 0        # main.cc:0:19
	leaq	-176(%rbp), %rax
	leaq	-160(%rbp), %rcx
	movq	%rcx, -48(%rbp)
	movq	%rax, -56(%rbp)
	movq	-48(%rbp), %rax
.Ltmp84:
	.loc	1 696 9 is_stmt 1       # /usr/local/include/benchmark/benchmark.h:696:9
	cmpq	$0, (%rax)
.Ltmp85:
	.loc	1 696 9 is_stmt 0       # /usr/local/include/benchmark/benchmark.h:696:9
	movq	%rax, -272(%rbp)        # 8-byte Spill
	je	.LBB6_6
# %bb.5:                                #   in Loop: Header=BB6_4 Depth=1
.Ltmp86:
	.loc	1 696 55                # /usr/local/include/benchmark/benchmark.h:696:55
	movb	$1, -33(%rbp)
	jmp	.LBB6_7
.Ltmp87:
.LBB6_6:                                #   in Loop: Header=BB6_4 Depth=1
	.loc	1 697 5 is_stmt 1       # /usr/local/include/benchmark/benchmark.h:697:5
	movq	-272(%rbp), %rax        # 8-byte Reload
	movq	8(%rax), %rdi
	.loc	1 697 14 is_stmt 0      # /usr/local/include/benchmark/benchmark.h:697:14
	callq	_ZN9benchmark5State17FinishKeepRunningEv
	.loc	1 698 5 is_stmt 1       # /usr/local/include/benchmark/benchmark.h:698:5
	movb	$0, -33(%rbp)
.Ltmp88:
.LBB6_7:                                #   in Loop: Header=BB6_4 Depth=1
	.loc	2 187 19                # main.cc:187:19
	testb	$1, -33(%rbp)
	jne	.LBB6_8
	jmp	.LBB6_29
.LBB6_8:                                #   in Loop: Header=BB6_4 Depth=1
	.loc	2 0 19 is_stmt 0        # main.cc:0:19
	leaq	-216(%rbp), %rdi
	leaq	-160(%rbp), %rax
	movq	%rax, -32(%rbp)
.Ltmp89:
	#DEBUG_VALUE: c <- [%rdi+0]
	.loc	2 188 15 is_stmt 1      # main.cc:188:15
	callq	_ZN6vectorIm8mreallocImEEC2Ev
.Ltmp90:
	.loc	2 189 26                # main.cc:189:26
	movq	-136(%rbp), %rax
	movq	%rax, -16(%rbp)
	movq	$0, -24(%rbp)
	movq	-16(%rbp), %rax
.Ltmp91:
	.loc	1 561 5                 # /usr/local/include/benchmark/benchmark.h:561:5
	movq	%rax, %rdi
	addq	$32, %rdi
	movq	%rax, -280(%rbp)        # 8-byte Spill
	callq	_ZNKSt6vectorIiSaIiEE4sizeEv
	cmpq	-24(%rbp), %rax
	ja	.LBB6_10
# %bb.9:
	.loc	1 0 5 is_stmt 0         # /usr/local/include/benchmark/benchmark.h:0:5
	movabsq	$.L.str.8, %rdi
	movabsq	$.L.str.9, %rsi
	movl	$561, %edx              # imm = 0x231
	movabsq	$.L__PRETTY_FUNCTION__._ZNK9benchmark5State5rangeEm, %rcx
	.loc	1 561 5                 # /usr/local/include/benchmark/benchmark.h:561:5
	callq	__assert_fail
.LBB6_10:                               #   in Loop: Header=BB6_4 Depth=1
	.loc	1 562 12 is_stmt 1      # /usr/local/include/benchmark/benchmark.h:562:12
	movq	-280(%rbp), %rax        # 8-byte Reload
	addq	$32, %rax
	.loc	1 562 19 is_stmt 0      # /usr/local/include/benchmark/benchmark.h:562:19
	movq	-24(%rbp), %rsi
	.loc	1 562 12                # /usr/local/include/benchmark/benchmark.h:562:12
	movq	%rax, %rdi
	callq	_ZNKSt6vectorIiSaIiEEixEm
	movl	(%rax), %ecx
	movl	%ecx, -284(%rbp)        # 4-byte Spill
.Ltmp92:
# %bb.11:                               #   in Loop: Header=BB6_4 Depth=1
	.loc	2 189 22 is_stmt 1      # main.cc:189:22
	movl	-284(%rbp), %eax        # 4-byte Reload
	movl	%eax, -220(%rbp)
.LBB6_12:                               #   Parent Loop BB6_4 Depth=1
                                        # =>  This Inner Loop Header: Depth=2
.Ltmp93:
	.loc	2 189 42 is_stmt 0      # main.cc:189:42
	movl	-220(%rbp), %eax
	addl	$-1, %eax
	movl	%eax, -220(%rbp)
	.loc	2 189 46                # main.cc:189:46
	cmpl	$0, %eax
.Ltmp94:
	.loc	2 189 13                # main.cc:189:13
	jl	.LBB6_24
# %bb.13:                               #   in Loop: Header=BB6_12 Depth=2
.Ltmp95:
	.loc	2 191 42 is_stmt 1      # main.cc:191:42
	movb	-220(%rbp), %al
	.loc	2 191 36 is_stmt 0      # main.cc:191:36
	movb	%al, -237(%rbp)
.Ltmp64:
	leaq	-216(%rbp), %rdi
	leaq	-237(%rbp), %rsi
	.loc	2 191 23                # main.cc:191:23
	callq	_ZN6vectorIm8mreallocImEE12emplace_backIJcEEEvDpOT_
.Ltmp65:
	jmp	.LBB6_14
.LBB6_14:                               #   in Loop: Header=BB6_12 Depth=2
	.loc	2 192 17 is_stmt 1      # main.cc:192:17
	jmp	.LBB6_21
.Ltmp96:
.LBB6_15:
.Ltmp75:
	.loc	2 196 5                 # main.cc:196:5
	movl	%edx, %ecx
	movq	%rax, -232(%rbp)
	movl	%ecx, -236(%rbp)
	jmp	.LBB6_28
.LBB6_16:                               #   in Loop: Header=BB6_12 Depth=2
.Ltmp66:
.Ltmp97:
	.loc	2 196 5 is_stmt 0       # main.cc:196:5
	movl	%edx, %ecx
	movq	%rax, -232(%rbp)
	movl	%ecx, -236(%rbp)
# %bb.17:                               #   in Loop: Header=BB6_12 Depth=2
	.loc	2 192 17 is_stmt 1      # main.cc:192:17
	movl	-236(%rbp), %eax
	movl	$1, %ecx
	cmpl	%ecx, %eax
	jne	.LBB6_28
# %bb.18:                               #   in Loop: Header=BB6_12 Depth=2
	movq	-232(%rbp), %rax
	movq	%rax, %rdi
	movq	%rax, -296(%rbp)        # 8-byte Spill
	callq	__cxa_get_exception_ptr
	leaq	-248(%rbp), %rdi
.Ltmp98:
	.loc	2 192 40 is_stmt 0      # main.cc:192:40
	movq	%rdi, -304(%rbp)        # 8-byte Spill
	movq	%rax, %rsi
	callq	_ZNSt9bad_allocC2ERKS_
.Ltmp99:
	.loc	2 192 17                # main.cc:192:17
	movq	-296(%rbp), %rdi        # 8-byte Reload
	callq	__cxa_begin_catch
.Ltmp100:
	.loc	2 193 21 is_stmt 1      # main.cc:193:21
	movq	-136(%rbp), %rdi
	.loc	2 193 43 is_stmt 0      # main.cc:193:43
	movq	-304(%rbp), %rsi        # 8-byte Reload
	movq	%rdi, -312(%rbp)        # 8-byte Spill
	movq	%rsi, %rdi
	movq	%rax, -320(%rbp)        # 8-byte Spill
	callq	_ZNKSt9bad_alloc4whatEv
.Ltmp67:
	.loc	2 193 27                # main.cc:193:27
	movq	-312(%rbp), %rdi        # 8-byte Reload
	movq	%rax, %rsi
	callq	_ZN9benchmark5State13SkipWithErrorEPKc
.Ltmp68:
	jmp	.LBB6_19
.LBB6_19:                               #   in Loop: Header=BB6_12 Depth=2
	.loc	2 0 27                  # main.cc:0:27
	leaq	-248(%rbp), %rdi
	.loc	2 194 17 is_stmt 1      # main.cc:194:17
	callq	_ZNSt9bad_allocD1Ev
.Ltmp73:
	callq	__cxa_end_catch
.Ltmp74:
	jmp	.LBB6_20
.LBB6_20:                               #   in Loop: Header=BB6_12 Depth=2
	jmp	.LBB6_21
.Ltmp101:
.LBB6_21:                               #   in Loop: Header=BB6_12 Depth=2
	.loc	2 189 13                # main.cc:189:13
	jmp	.LBB6_12
.LBB6_22:
.Ltmp69:
.Ltmp102:
	.loc	2 196 5                 # main.cc:196:5
	movl	%edx, %ecx
	movq	%rax, -232(%rbp)
	movl	%ecx, -236(%rbp)
	leaq	-248(%rbp), %rdi
	.loc	2 194 17                # main.cc:194:17
	callq	_ZNSt9bad_allocD1Ev
.Ltmp70:
	callq	__cxa_end_catch
.Ltmp71:
	jmp	.LBB6_23
.LBB6_23:
	jmp	.LBB6_28
.Ltmp103:
.LBB6_24:                               #   in Loop: Header=BB6_4 Depth=1
	.loc	2 0 17 is_stmt 0        # main.cc:0:17
	leaq	-216(%rbp), %rdi
	.loc	2 195 9 is_stmt 1       # main.cc:195:9
	callq	_ZN6vectorIm8mreallocImEED2Ev
.Ltmp104:
# %bb.25:                               #   in Loop: Header=BB6_4 Depth=1
	.loc	2 0 9 is_stmt 0         # main.cc:0:9
	leaq	-160(%rbp), %rax
	movq	%rax, -8(%rbp)
	movq	-8(%rbp), %rax
.Ltmp105:
	.loc	1 689 5 is_stmt 1       # /usr/local/include/benchmark/benchmark.h:689:5
	cmpq	$0, (%rax)
	movq	%rax, -328(%rbp)        # 8-byte Spill
	ja	.LBB6_27
# %bb.26:
	.loc	1 0 5 is_stmt 0         # /usr/local/include/benchmark/benchmark.h:0:5
	movabsq	$.L.str.10, %rdi
	movabsq	$.L.str.9, %rsi
	movl	$689, %edx              # imm = 0x2B1
	movabsq	$.L__PRETTY_FUNCTION__._ZN9benchmark5State13StateIteratorppEv, %rcx
	.loc	1 689 5                 # /usr/local/include/benchmark/benchmark.h:689:5
	callq	__assert_fail
.LBB6_27:                               #   in Loop: Header=BB6_4 Depth=1
	.loc	1 690 5 is_stmt 1       # /usr/local/include/benchmark/benchmark.h:690:5
	movq	-328(%rbp), %rax        # 8-byte Reload
	movq	(%rax), %rcx
	addq	$-1, %rcx
	movq	%rcx, (%rax)
.Ltmp106:
	.loc	2 187 19                # main.cc:187:19
	jmp	.LBB6_4
.LBB6_28:
	.loc	2 0 19 is_stmt 0        # main.cc:0:19
	leaq	-216(%rbp), %rdi
.Ltmp107:
	.loc	2 195 9 is_stmt 1       # main.cc:195:9
	callq	_ZN6vectorIm8mreallocImEED2Ev
	jmp	.LBB6_30
.Ltmp108:
.LBB6_29:
	.loc	2 196 5                 # main.cc:196:5
	addq	$336, %rsp              # imm = 0x150
	popq	%rbp
	retq
.LBB6_30:
.Ltmp109:
	.loc	2 195 9                 # main.cc:195:9
	movq	-232(%rbp), %rdi
	callq	_Unwind_Resume
.LBB6_31:
.Ltmp72:
.Ltmp110:
	.loc	2 194 17                # main.cc:194:17
	movl	%edx, %ecx
	movq	%rax, %rdi
	movl	%ecx, -332(%rbp)        # 4-byte Spill
	callq	__clang_call_terminate
.Ltmp111:
.Lfunc_end6:
	.size	_ZL9BM_vectorI6vectorIm8mreallocImEEEvRN9benchmark5StateE, .Lfunc_end6-_ZL9BM_vectorI6vectorIm8mreallocImEEEvRN9benchmark5StateE
	.cfi_endproc
	.section	.gcc_except_table,"a",@progbits
	.p2align	2
GCC_except_table6:
.Lexception3:
	.byte	255                     # @LPStart Encoding = omit
	.byte	3                       # @TType Encoding = udata4
	.asciz	"\353\200"              # @TType base offset
	.byte	3                       # Call site Encoding = udata4
	.byte	91                      # Call site table length
	.long	.Lfunc_begin6-.Lfunc_begin6 # >> Call Site 1 <<
	.long	.Ltmp64-.Lfunc_begin6   #   Call between .Lfunc_begin6 and .Ltmp64
	.long	0                       #     has no landing pad
	.byte	0                       #   On action: cleanup
	.long	.Ltmp64-.Lfunc_begin6   # >> Call Site 2 <<
	.long	.Ltmp65-.Ltmp64         #   Call between .Ltmp64 and .Ltmp65
	.long	.Ltmp66-.Lfunc_begin6   #     jumps to .Ltmp66
	.byte	3                       #   On action: 2
	.long	.Ltmp65-.Lfunc_begin6   # >> Call Site 3 <<
	.long	.Ltmp67-.Ltmp65         #   Call between .Ltmp65 and .Ltmp67
	.long	0                       #     has no landing pad
	.byte	0                       #   On action: cleanup
	.long	.Ltmp67-.Lfunc_begin6   # >> Call Site 4 <<
	.long	.Ltmp68-.Ltmp67         #   Call between .Ltmp67 and .Ltmp68
	.long	.Ltmp69-.Lfunc_begin6   #     jumps to .Ltmp69
	.byte	0                       #   On action: cleanup
	.long	.Ltmp73-.Lfunc_begin6   # >> Call Site 5 <<
	.long	.Ltmp74-.Ltmp73         #   Call between .Ltmp73 and .Ltmp74
	.long	.Ltmp75-.Lfunc_begin6   #     jumps to .Ltmp75
	.byte	0                       #   On action: cleanup
	.long	.Ltmp70-.Lfunc_begin6   # >> Call Site 6 <<
	.long	.Ltmp71-.Ltmp70         #   Call between .Ltmp70 and .Ltmp71
	.long	.Ltmp72-.Lfunc_begin6   #     jumps to .Ltmp72
	.byte	5                       #   On action: 3
	.long	.Ltmp71-.Lfunc_begin6   # >> Call Site 7 <<
	.long	.Lfunc_end6-.Ltmp71     #   Call between .Ltmp71 and .Lfunc_end6
	.long	0                       #     has no landing pad
	.byte	0                       #   On action: cleanup
	.byte	0                       # >> Action Record 1 <<
                                        #   Cleanup
	.byte	0                       #   No further actions
	.byte	1                       # >> Action Record 2 <<
                                        #   Catch TypeInfo 1
	.byte	125                     #   Continue to action 1
	.byte	2                       # >> Action Record 3 <<
                                        #   Catch TypeInfo 2
	.byte	0                       #   No further actions
                                        # >> Catch TypeInfos <<
	.long	0                       # TypeInfo 2
	.long	_ZTISt9bad_alloc        # TypeInfo 1
	.p2align	2
                                        # -- End function
	.section	.text.startup,"ax",@progbits
	.p2align	4, 0x90         # -- Begin function __cxx_global_var_init.4
	.type	__cxx_global_var_init.4,@function
__cxx_global_var_init.4:                # @__cxx_global_var_init.4
.Lfunc_begin7:
	.loc	2 202 0                 # main.cc:202:0
	.cfi_startproc
	.cfi_personality 3, __gxx_personality_v0
	.cfi_lsda 3, .Lexception4
# %bb.0:
	pushq	%rbp
	.cfi_def_cfa_offset 16
	.cfi_offset %rbp, -16
	movq	%rsp, %rbp
	.cfi_def_cfa_register %rbp
.Ltmp115:
	.loc	2 202 5 prologue_end    # main.cc:202:5
	subq	$32, %rsp
	movl	$200, %eax
	movl	%eax, %edi
	callq	_Znwm
	movq	%rax, %rdi
	movq	%rax, %rcx
.Ltmp112:
	movl	$.L.str.5, %edx
	movl	%edx, %esi
	movl	$_ZL9BM_vectorI6vectorIm11mmapreallocImEEEvRN9benchmark5StateE, %edx
                                        # kill: def %rdx killed %edx
	movq	%rdi, -24(%rbp)         # 8-byte Spill
	movq	%rax, %rdi
	movq	%rcx, -32(%rbp)         # 8-byte Spill
	callq	_ZN9benchmark8internal17FunctionBenchmarkC2EPKcPFvRNS_5StateEE
.Ltmp113:
	jmp	.LBB7_1
.LBB7_1:
	movq	-32(%rbp), %rax         # 8-byte Reload
	movq	%rax, %rdi
	callq	_ZN9benchmark8internal25RegisterBenchmarkInternalEPNS0_9BenchmarkE
	movl	$8, %esi
	movl	$134217728, %edx        # imm = 0x8000000
	.loc	2 202 100 is_stmt 0     # main.cc:202:100
	movq	%rax, %rdi
	callq	_ZN9benchmark8internal9Benchmark5RangeEii
	movq	%rax, _ZL21_benchmark_4BM_vector
	.loc	2 202 123               # main.cc:202:123
	addq	$32, %rsp
	popq	%rbp
	retq
.LBB7_2:
.Ltmp114:
	.loc	2 202 5                 # main.cc:202:5
	movl	%edx, %ecx
	movq	%rax, -8(%rbp)
	movl	%ecx, -12(%rbp)
	movq	-24(%rbp), %rdi         # 8-byte Reload
	callq	_ZdlPv
# %bb.3:
	movq	-8(%rbp), %rdi
	callq	_Unwind_Resume
.Ltmp116:
.Lfunc_end7:
	.size	__cxx_global_var_init.4, .Lfunc_end7-__cxx_global_var_init.4
	.cfi_endproc
	.section	.gcc_except_table,"a",@progbits
	.p2align	2
GCC_except_table7:
.Lexception4:
	.byte	255                     # @LPStart Encoding = omit
	.byte	3                       # @TType Encoding = udata4
	.byte	41                      # @TType base offset
	.byte	3                       # Call site Encoding = udata4
	.byte	39                      # Call site table length
	.long	.Lfunc_begin7-.Lfunc_begin7 # >> Call Site 1 <<
	.long	.Ltmp112-.Lfunc_begin7  #   Call between .Lfunc_begin7 and .Ltmp112
	.long	0                       #     has no landing pad
	.byte	0                       #   On action: cleanup
	.long	.Ltmp112-.Lfunc_begin7  # >> Call Site 2 <<
	.long	.Ltmp113-.Ltmp112       #   Call between .Ltmp112 and .Ltmp113
	.long	.Ltmp114-.Lfunc_begin7  #     jumps to .Ltmp114
	.byte	0                       #   On action: cleanup
	.long	.Ltmp113-.Lfunc_begin7  # >> Call Site 3 <<
	.long	.Lfunc_end7-.Ltmp113    #   Call between .Ltmp113 and .Lfunc_end7
	.long	0                       #     has no landing pad
	.byte	0                       #   On action: cleanup
	.p2align	2
                                        # -- End function
	.text
	.p2align	4, 0x90         # -- Begin function _ZL9BM_vectorI6vectorIm11mmapreallocImEEEvRN9benchmark5StateE
	.type	_ZL9BM_vectorI6vectorIm11mmapreallocImEEEvRN9benchmark5StateE,@function
_ZL9BM_vectorI6vectorIm11mmapreallocImEEEvRN9benchmark5StateE: # @_ZL9BM_vectorI6vectorIm11mmapreallocImEEEvRN9benchmark5StateE
.Lfunc_begin8:
	.loc	2 186 0 is_stmt 1       # main.cc:186:0
	.cfi_startproc
	.cfi_personality 3, __gxx_personality_v0
	.cfi_lsda 3, .Lexception5
# %bb.0:
	pushq	%rbp
	.cfi_def_cfa_offset 16
	.cfi_offset %rbp, -16
	movq	%rsp, %rbp
	.cfi_def_cfa_register %rbp
	subq	$336, %rsp              # imm = 0x150
	leaq	-120(%rbp), %rax
	movq	%rdi, -136(%rbp)
.Ltmp129:
	.loc	2 187 21 prologue_end   # main.cc:187:21
	movq	-136(%rbp), %rdi
	movq	%rdi, -144(%rbp)
	.loc	2 187 19 is_stmt 0      # main.cc:187:19
	movq	-144(%rbp), %rdi
	movq	%rdi, -128(%rbp)
	movq	-128(%rbp), %rdi
	movq	%rax, -96(%rbp)
	movq	%rdi, -104(%rbp)
	movq	-96(%rbp), %rax
.Ltmp130:
	.loc	1 681 17 is_stmt 1      # /usr/local/include/benchmark/benchmark.h:681:17
	movq	-104(%rbp), %rdi
	testb	$1, 26(%rdi)
	movq	%rax, -256(%rbp)        # 8-byte Spill
	je	.LBB8_2
# %bb.1:
	.loc	1 0 17 is_stmt 0        # /usr/local/include/benchmark/benchmark.h:0:17
	xorl	%eax, %eax
	movl	%eax, %ecx
	.loc	1 681 17                # /usr/local/include/benchmark/benchmark.h:681:17
	movq	%rcx, -264(%rbp)        # 8-byte Spill
	jmp	.LBB8_3
.LBB8_2:
	.loc	1 681 43                # /usr/local/include/benchmark/benchmark.h:681:43
	movq	-104(%rbp), %rax
	.loc	1 681 47                # /usr/local/include/benchmark/benchmark.h:681:47
	movq	16(%rax), %rax
	movq	%rax, -264(%rbp)        # 8-byte Spill
.LBB8_3:
	.loc	1 681 17                # /usr/local/include/benchmark/benchmark.h:681:17
	movq	-264(%rbp), %rax        # 8-byte Reload
	.loc	1 681 9                 # /usr/local/include/benchmark/benchmark.h:681:9
	movq	-256(%rbp), %rcx        # 8-byte Reload
	movq	%rax, (%rcx)
	.loc	1 681 72                # /usr/local/include/benchmark/benchmark.h:681:72
	movq	-104(%rbp), %rax
	.loc	1 681 64                # /usr/local/include/benchmark/benchmark.h:681:64
	movq	%rax, 8(%rcx)
.Ltmp131:
	.loc	1 707 3 is_stmt 1       # /usr/local/include/benchmark/benchmark.h:707:3
	movq	-120(%rbp), %rax
	movq	-112(%rbp), %rdx
.Ltmp132:
	.loc	2 187 19                # main.cc:187:19
	movq	%rax, -160(%rbp)
	movq	%rdx, -152(%rbp)
	movq	-144(%rbp), %rax
	movq	%rax, -88(%rbp)
	movq	-88(%rbp), %rdi
.Ltmp133:
	.loc	1 710 3                 # /usr/local/include/benchmark/benchmark.h:710:3
	callq	_ZN9benchmark5State16StartKeepRunningEv
	leaq	-80(%rbp), %rax
	movq	%rax, -64(%rbp)
	movq	-64(%rbp), %rax
.Ltmp134:
	.loc	1 677 21                # /usr/local/include/benchmark/benchmark.h:677:21
	movq	$0, (%rax)
	.loc	1 677 33 is_stmt 0      # /usr/local/include/benchmark/benchmark.h:677:33
	movq	$0, 8(%rax)
.Ltmp135:
	.loc	1 711 3 is_stmt 1       # /usr/local/include/benchmark/benchmark.h:711:3
	movq	-80(%rbp), %rax
	movq	-72(%rbp), %rcx
.Ltmp136:
	.loc	2 187 19                # main.cc:187:19
	movq	%rax, -176(%rbp)
	movq	%rcx, -168(%rbp)
.LBB8_4:                                # =>This Loop Header: Depth=1
                                        #     Child Loop BB8_12 Depth 2
	.loc	2 0 19 is_stmt 0        # main.cc:0:19
	leaq	-176(%rbp), %rax
	leaq	-160(%rbp), %rcx
	movq	%rcx, -48(%rbp)
	movq	%rax, -56(%rbp)
	movq	-48(%rbp), %rax
.Ltmp137:
	.loc	1 696 9 is_stmt 1       # /usr/local/include/benchmark/benchmark.h:696:9
	cmpq	$0, (%rax)
.Ltmp138:
	.loc	1 696 9 is_stmt 0       # /usr/local/include/benchmark/benchmark.h:696:9
	movq	%rax, -272(%rbp)        # 8-byte Spill
	je	.LBB8_6
# %bb.5:                                #   in Loop: Header=BB8_4 Depth=1
.Ltmp139:
	.loc	1 696 55                # /usr/local/include/benchmark/benchmark.h:696:55
	movb	$1, -33(%rbp)
	jmp	.LBB8_7
.Ltmp140:
.LBB8_6:                                #   in Loop: Header=BB8_4 Depth=1
	.loc	1 697 5 is_stmt 1       # /usr/local/include/benchmark/benchmark.h:697:5
	movq	-272(%rbp), %rax        # 8-byte Reload
	movq	8(%rax), %rdi
	.loc	1 697 14 is_stmt 0      # /usr/local/include/benchmark/benchmark.h:697:14
	callq	_ZN9benchmark5State17FinishKeepRunningEv
	.loc	1 698 5 is_stmt 1       # /usr/local/include/benchmark/benchmark.h:698:5
	movb	$0, -33(%rbp)
.Ltmp141:
.LBB8_7:                                #   in Loop: Header=BB8_4 Depth=1
	.loc	2 187 19                # main.cc:187:19
	testb	$1, -33(%rbp)
	jne	.LBB8_8
	jmp	.LBB8_29
.LBB8_8:                                #   in Loop: Header=BB8_4 Depth=1
	.loc	2 0 19 is_stmt 0        # main.cc:0:19
	leaq	-216(%rbp), %rdi
	leaq	-160(%rbp), %rax
	movq	%rax, -32(%rbp)
.Ltmp142:
	#DEBUG_VALUE: c <- [%rdi+0]
	.loc	2 188 15 is_stmt 1      # main.cc:188:15
	callq	_ZN6vectorIm11mmapreallocImEEC2Ev
.Ltmp143:
	.loc	2 189 26                # main.cc:189:26
	movq	-136(%rbp), %rax
	movq	%rax, -16(%rbp)
	movq	$0, -24(%rbp)
	movq	-16(%rbp), %rax
.Ltmp144:
	.loc	1 561 5                 # /usr/local/include/benchmark/benchmark.h:561:5
	movq	%rax, %rdi
	addq	$32, %rdi
	movq	%rax, -280(%rbp)        # 8-byte Spill
	callq	_ZNKSt6vectorIiSaIiEE4sizeEv
	cmpq	-24(%rbp), %rax
	ja	.LBB8_10
# %bb.9:
	.loc	1 0 5 is_stmt 0         # /usr/local/include/benchmark/benchmark.h:0:5
	movabsq	$.L.str.8, %rdi
	movabsq	$.L.str.9, %rsi
	movl	$561, %edx              # imm = 0x231
	movabsq	$.L__PRETTY_FUNCTION__._ZNK9benchmark5State5rangeEm, %rcx
	.loc	1 561 5                 # /usr/local/include/benchmark/benchmark.h:561:5
	callq	__assert_fail
.LBB8_10:                               #   in Loop: Header=BB8_4 Depth=1
	.loc	1 562 12 is_stmt 1      # /usr/local/include/benchmark/benchmark.h:562:12
	movq	-280(%rbp), %rax        # 8-byte Reload
	addq	$32, %rax
	.loc	1 562 19 is_stmt 0      # /usr/local/include/benchmark/benchmark.h:562:19
	movq	-24(%rbp), %rsi
	.loc	1 562 12                # /usr/local/include/benchmark/benchmark.h:562:12
	movq	%rax, %rdi
	callq	_ZNKSt6vectorIiSaIiEEixEm
	movl	(%rax), %ecx
	movl	%ecx, -284(%rbp)        # 4-byte Spill
.Ltmp145:
# %bb.11:                               #   in Loop: Header=BB8_4 Depth=1
	.loc	2 189 22 is_stmt 1      # main.cc:189:22
	movl	-284(%rbp), %eax        # 4-byte Reload
	movl	%eax, -220(%rbp)
.LBB8_12:                               #   Parent Loop BB8_4 Depth=1
                                        # =>  This Inner Loop Header: Depth=2
.Ltmp146:
	.loc	2 189 42 is_stmt 0      # main.cc:189:42
	movl	-220(%rbp), %eax
	addl	$-1, %eax
	movl	%eax, -220(%rbp)
	.loc	2 189 46                # main.cc:189:46
	cmpl	$0, %eax
.Ltmp147:
	.loc	2 189 13                # main.cc:189:13
	jl	.LBB8_24
# %bb.13:                               #   in Loop: Header=BB8_12 Depth=2
.Ltmp148:
	.loc	2 191 42 is_stmt 1      # main.cc:191:42
	movb	-220(%rbp), %al
	.loc	2 191 36 is_stmt 0      # main.cc:191:36
	movb	%al, -237(%rbp)
.Ltmp117:
	leaq	-216(%rbp), %rdi
	leaq	-237(%rbp), %rsi
	.loc	2 191 23                # main.cc:191:23
	callq	_ZN6vectorIm11mmapreallocImEE12emplace_backIJcEEEvDpOT_
.Ltmp118:
	jmp	.LBB8_14
.LBB8_14:                               #   in Loop: Header=BB8_12 Depth=2
	.loc	2 192 17 is_stmt 1      # main.cc:192:17
	jmp	.LBB8_21
.Ltmp149:
.LBB8_15:
.Ltmp128:
	.loc	2 196 5                 # main.cc:196:5
	movl	%edx, %ecx
	movq	%rax, -232(%rbp)
	movl	%ecx, -236(%rbp)
	jmp	.LBB8_28
.LBB8_16:                               #   in Loop: Header=BB8_12 Depth=2
.Ltmp119:
.Ltmp150:
	.loc	2 196 5 is_stmt 0       # main.cc:196:5
	movl	%edx, %ecx
	movq	%rax, -232(%rbp)
	movl	%ecx, -236(%rbp)
# %bb.17:                               #   in Loop: Header=BB8_12 Depth=2
	.loc	2 192 17 is_stmt 1      # main.cc:192:17
	movl	-236(%rbp), %eax
	movl	$1, %ecx
	cmpl	%ecx, %eax
	jne	.LBB8_28
# %bb.18:                               #   in Loop: Header=BB8_12 Depth=2
	movq	-232(%rbp), %rax
	movq	%rax, %rdi
	movq	%rax, -296(%rbp)        # 8-byte Spill
	callq	__cxa_get_exception_ptr
	leaq	-248(%rbp), %rdi
.Ltmp151:
	.loc	2 192 40 is_stmt 0      # main.cc:192:40
	movq	%rdi, -304(%rbp)        # 8-byte Spill
	movq	%rax, %rsi
	callq	_ZNSt9bad_allocC2ERKS_
.Ltmp152:
	.loc	2 192 17                # main.cc:192:17
	movq	-296(%rbp), %rdi        # 8-byte Reload
	callq	__cxa_begin_catch
.Ltmp153:
	.loc	2 193 21 is_stmt 1      # main.cc:193:21
	movq	-136(%rbp), %rdi
	.loc	2 193 43 is_stmt 0      # main.cc:193:43
	movq	-304(%rbp), %rsi        # 8-byte Reload
	movq	%rdi, -312(%rbp)        # 8-byte Spill
	movq	%rsi, %rdi
	movq	%rax, -320(%rbp)        # 8-byte Spill
	callq	_ZNKSt9bad_alloc4whatEv
.Ltmp120:
	.loc	2 193 27                # main.cc:193:27
	movq	-312(%rbp), %rdi        # 8-byte Reload
	movq	%rax, %rsi
	callq	_ZN9benchmark5State13SkipWithErrorEPKc
.Ltmp121:
	jmp	.LBB8_19
.LBB8_19:                               #   in Loop: Header=BB8_12 Depth=2
	.loc	2 0 27                  # main.cc:0:27
	leaq	-248(%rbp), %rdi
	.loc	2 194 17 is_stmt 1      # main.cc:194:17
	callq	_ZNSt9bad_allocD1Ev
.Ltmp126:
	callq	__cxa_end_catch
.Ltmp127:
	jmp	.LBB8_20
.LBB8_20:                               #   in Loop: Header=BB8_12 Depth=2
	jmp	.LBB8_21
.Ltmp154:
.LBB8_21:                               #   in Loop: Header=BB8_12 Depth=2
	.loc	2 189 13                # main.cc:189:13
	jmp	.LBB8_12
.LBB8_22:
.Ltmp122:
.Ltmp155:
	.loc	2 196 5                 # main.cc:196:5
	movl	%edx, %ecx
	movq	%rax, -232(%rbp)
	movl	%ecx, -236(%rbp)
	leaq	-248(%rbp), %rdi
	.loc	2 194 17                # main.cc:194:17
	callq	_ZNSt9bad_allocD1Ev
.Ltmp123:
	callq	__cxa_end_catch
.Ltmp124:
	jmp	.LBB8_23
.LBB8_23:
	jmp	.LBB8_28
.Ltmp156:
.LBB8_24:                               #   in Loop: Header=BB8_4 Depth=1
	.loc	2 0 17 is_stmt 0        # main.cc:0:17
	leaq	-216(%rbp), %rdi
	.loc	2 195 9 is_stmt 1       # main.cc:195:9
	callq	_ZN6vectorIm11mmapreallocImEED2Ev
.Ltmp157:
# %bb.25:                               #   in Loop: Header=BB8_4 Depth=1
	.loc	2 0 9 is_stmt 0         # main.cc:0:9
	leaq	-160(%rbp), %rax
	movq	%rax, -8(%rbp)
	movq	-8(%rbp), %rax
.Ltmp158:
	.loc	1 689 5 is_stmt 1       # /usr/local/include/benchmark/benchmark.h:689:5
	cmpq	$0, (%rax)
	movq	%rax, -328(%rbp)        # 8-byte Spill
	ja	.LBB8_27
# %bb.26:
	.loc	1 0 5 is_stmt 0         # /usr/local/include/benchmark/benchmark.h:0:5
	movabsq	$.L.str.10, %rdi
	movabsq	$.L.str.9, %rsi
	movl	$689, %edx              # imm = 0x2B1
	movabsq	$.L__PRETTY_FUNCTION__._ZN9benchmark5State13StateIteratorppEv, %rcx
	.loc	1 689 5                 # /usr/local/include/benchmark/benchmark.h:689:5
	callq	__assert_fail
.LBB8_27:                               #   in Loop: Header=BB8_4 Depth=1
	.loc	1 690 5 is_stmt 1       # /usr/local/include/benchmark/benchmark.h:690:5
	movq	-328(%rbp), %rax        # 8-byte Reload
	movq	(%rax), %rcx
	addq	$-1, %rcx
	movq	%rcx, (%rax)
.Ltmp159:
	.loc	2 187 19                # main.cc:187:19
	jmp	.LBB8_4
.LBB8_28:
	.loc	2 0 19 is_stmt 0        # main.cc:0:19
	leaq	-216(%rbp), %rdi
.Ltmp160:
	.loc	2 195 9 is_stmt 1       # main.cc:195:9
	callq	_ZN6vectorIm11mmapreallocImEED2Ev
	jmp	.LBB8_30
.Ltmp161:
.LBB8_29:
	.loc	2 196 5                 # main.cc:196:5
	addq	$336, %rsp              # imm = 0x150
	popq	%rbp
	retq
.LBB8_30:
.Ltmp162:
	.loc	2 195 9                 # main.cc:195:9
	movq	-232(%rbp), %rdi
	callq	_Unwind_Resume
.LBB8_31:
.Ltmp125:
.Ltmp163:
	.loc	2 194 17                # main.cc:194:17
	movl	%edx, %ecx
	movq	%rax, %rdi
	movl	%ecx, -332(%rbp)        # 4-byte Spill
	callq	__clang_call_terminate
.Ltmp164:
.Lfunc_end8:
	.size	_ZL9BM_vectorI6vectorIm11mmapreallocImEEEvRN9benchmark5StateE, .Lfunc_end8-_ZL9BM_vectorI6vectorIm11mmapreallocImEEEvRN9benchmark5StateE
	.cfi_endproc
	.section	.gcc_except_table,"a",@progbits
	.p2align	2
GCC_except_table8:
.Lexception5:
	.byte	255                     # @LPStart Encoding = omit
	.byte	3                       # @TType Encoding = udata4
	.asciz	"\353\200"              # @TType base offset
	.byte	3                       # Call site Encoding = udata4
	.byte	91                      # Call site table length
	.long	.Lfunc_begin8-.Lfunc_begin8 # >> Call Site 1 <<
	.long	.Ltmp117-.Lfunc_begin8  #   Call between .Lfunc_begin8 and .Ltmp117
	.long	0                       #     has no landing pad
	.byte	0                       #   On action: cleanup
	.long	.Ltmp117-.Lfunc_begin8  # >> Call Site 2 <<
	.long	.Ltmp118-.Ltmp117       #   Call between .Ltmp117 and .Ltmp118
	.long	.Ltmp119-.Lfunc_begin8  #     jumps to .Ltmp119
	.byte	3                       #   On action: 2
	.long	.Ltmp118-.Lfunc_begin8  # >> Call Site 3 <<
	.long	.Ltmp120-.Ltmp118       #   Call between .Ltmp118 and .Ltmp120
	.long	0                       #     has no landing pad
	.byte	0                       #   On action: cleanup
	.long	.Ltmp120-.Lfunc_begin8  # >> Call Site 4 <<
	.long	.Ltmp121-.Ltmp120       #   Call between .Ltmp120 and .Ltmp121
	.long	.Ltmp122-.Lfunc_begin8  #     jumps to .Ltmp122
	.byte	0                       #   On action: cleanup
	.long	.Ltmp126-.Lfunc_begin8  # >> Call Site 5 <<
	.long	.Ltmp127-.Ltmp126       #   Call between .Ltmp126 and .Ltmp127
	.long	.Ltmp128-.Lfunc_begin8  #     jumps to .Ltmp128
	.byte	0                       #   On action: cleanup
	.long	.Ltmp123-.Lfunc_begin8  # >> Call Site 6 <<
	.long	.Ltmp124-.Ltmp123       #   Call between .Ltmp123 and .Ltmp124
	.long	.Ltmp125-.Lfunc_begin8  #     jumps to .Ltmp125
	.byte	5                       #   On action: 3
	.long	.Ltmp124-.Lfunc_begin8  # >> Call Site 7 <<
	.long	.Lfunc_end8-.Ltmp124    #   Call between .Ltmp124 and .Lfunc_end8
	.long	0                       #     has no landing pad
	.byte	0                       #   On action: cleanup
	.byte	0                       # >> Action Record 1 <<
                                        #   Cleanup
	.byte	0                       #   No further actions
	.byte	1                       # >> Action Record 2 <<
                                        #   Catch TypeInfo 1
	.byte	125                     #   Continue to action 1
	.byte	2                       # >> Action Record 3 <<
                                        #   Catch TypeInfo 2
	.byte	0                       #   No further actions
                                        # >> Catch TypeInfos <<
	.long	0                       # TypeInfo 2
	.long	_ZTISt9bad_alloc        # TypeInfo 1
	.p2align	2
                                        # -- End function
	.section	.text.startup,"ax",@progbits
	.p2align	4, 0x90         # -- Begin function __cxx_global_var_init.6
	.type	__cxx_global_var_init.6,@function
__cxx_global_var_init.6:                # @__cxx_global_var_init.6
.Lfunc_begin9:
	.loc	2 203 0                 # main.cc:203:0
	.cfi_startproc
	.cfi_personality 3, __gxx_personality_v0
	.cfi_lsda 3, .Lexception6
# %bb.0:
	pushq	%rbp
	.cfi_def_cfa_offset 16
	.cfi_offset %rbp, -16
	movq	%rsp, %rbp
	.cfi_def_cfa_register %rbp
.Ltmp168:
	.loc	2 203 5 prologue_end    # main.cc:203:5
	subq	$32, %rsp
	movl	$200, %eax
	movl	%eax, %edi
	callq	_Znwm
	movq	%rax, %rdi
	movq	%rax, %rcx
.Ltmp165:
	movl	$.L.str.7, %edx
	movl	%edx, %esi
	movl	$_ZL9BM_vectorI6vectorIm24mmaprealloc_populate_verImEEEvRN9benchmark5StateE, %edx
                                        # kill: def %rdx killed %edx
	movq	%rdi, -24(%rbp)         # 8-byte Spill
	movq	%rax, %rdi
	movq	%rcx, -32(%rbp)         # 8-byte Spill
	callq	_ZN9benchmark8internal17FunctionBenchmarkC2EPKcPFvRNS_5StateEE
.Ltmp166:
	jmp	.LBB9_1
.LBB9_1:
	movq	-32(%rbp), %rax         # 8-byte Reload
	movq	%rax, %rdi
	callq	_ZN9benchmark8internal25RegisterBenchmarkInternalEPNS0_9BenchmarkE
	movl	$8, %esi
	movl	$134217728, %edx        # imm = 0x8000000
	.loc	2 203 100 is_stmt 0     # main.cc:203:100
	movq	%rax, %rdi
	callq	_ZN9benchmark8internal9Benchmark5RangeEii
	movq	%rax, _ZL21_benchmark_5BM_vector
	.loc	2 203 123               # main.cc:203:123
	addq	$32, %rsp
	popq	%rbp
	retq
.LBB9_2:
.Ltmp167:
	.loc	2 203 5                 # main.cc:203:5
	movl	%edx, %ecx
	movq	%rax, -8(%rbp)
	movl	%ecx, -12(%rbp)
	movq	-24(%rbp), %rdi         # 8-byte Reload
	callq	_ZdlPv
# %bb.3:
	movq	-8(%rbp), %rdi
	callq	_Unwind_Resume
.Ltmp169:
.Lfunc_end9:
	.size	__cxx_global_var_init.6, .Lfunc_end9-__cxx_global_var_init.6
	.cfi_endproc
	.section	.gcc_except_table,"a",@progbits
	.p2align	2
GCC_except_table9:
.Lexception6:
	.byte	255                     # @LPStart Encoding = omit
	.byte	3                       # @TType Encoding = udata4
	.byte	41                      # @TType base offset
	.byte	3                       # Call site Encoding = udata4
	.byte	39                      # Call site table length
	.long	.Lfunc_begin9-.Lfunc_begin9 # >> Call Site 1 <<
	.long	.Ltmp165-.Lfunc_begin9  #   Call between .Lfunc_begin9 and .Ltmp165
	.long	0                       #     has no landing pad
	.byte	0                       #   On action: cleanup
	.long	.Ltmp165-.Lfunc_begin9  # >> Call Site 2 <<
	.long	.Ltmp166-.Ltmp165       #   Call between .Ltmp165 and .Ltmp166
	.long	.Ltmp167-.Lfunc_begin9  #     jumps to .Ltmp167
	.byte	0                       #   On action: cleanup
	.long	.Ltmp166-.Lfunc_begin9  # >> Call Site 3 <<
	.long	.Lfunc_end9-.Ltmp166    #   Call between .Ltmp166 and .Lfunc_end9
	.long	0                       #     has no landing pad
	.byte	0                       #   On action: cleanup
	.p2align	2
                                        # -- End function
	.text
	.p2align	4, 0x90         # -- Begin function _ZL9BM_vectorI6vectorIm24mmaprealloc_populate_verImEEEvRN9benchmark5StateE
	.type	_ZL9BM_vectorI6vectorIm24mmaprealloc_populate_verImEEEvRN9benchmark5StateE,@function
_ZL9BM_vectorI6vectorIm24mmaprealloc_populate_verImEEEvRN9benchmark5StateE: # @_ZL9BM_vectorI6vectorIm24mmaprealloc_populate_verImEEEvRN9benchmark5StateE
.Lfunc_begin10:
	.loc	2 186 0 is_stmt 1       # main.cc:186:0
	.cfi_startproc
	.cfi_personality 3, __gxx_personality_v0
	.cfi_lsda 3, .Lexception7
# %bb.0:
	pushq	%rbp
	.cfi_def_cfa_offset 16
	.cfi_offset %rbp, -16
	movq	%rsp, %rbp
	.cfi_def_cfa_register %rbp
	subq	$336, %rsp              # imm = 0x150
	leaq	-120(%rbp), %rax
	movq	%rdi, -136(%rbp)
.Ltmp182:
	.loc	2 187 21 prologue_end   # main.cc:187:21
	movq	-136(%rbp), %rdi
	movq	%rdi, -144(%rbp)
	.loc	2 187 19 is_stmt 0      # main.cc:187:19
	movq	-144(%rbp), %rdi
	movq	%rdi, -128(%rbp)
	movq	-128(%rbp), %rdi
	movq	%rax, -96(%rbp)
	movq	%rdi, -104(%rbp)
	movq	-96(%rbp), %rax
.Ltmp183:
	.loc	1 681 17 is_stmt 1      # /usr/local/include/benchmark/benchmark.h:681:17
	movq	-104(%rbp), %rdi
	testb	$1, 26(%rdi)
	movq	%rax, -256(%rbp)        # 8-byte Spill
	je	.LBB10_2
# %bb.1:
	.loc	1 0 17 is_stmt 0        # /usr/local/include/benchmark/benchmark.h:0:17
	xorl	%eax, %eax
	movl	%eax, %ecx
	.loc	1 681 17                # /usr/local/include/benchmark/benchmark.h:681:17
	movq	%rcx, -264(%rbp)        # 8-byte Spill
	jmp	.LBB10_3
.LBB10_2:
	.loc	1 681 43                # /usr/local/include/benchmark/benchmark.h:681:43
	movq	-104(%rbp), %rax
	.loc	1 681 47                # /usr/local/include/benchmark/benchmark.h:681:47
	movq	16(%rax), %rax
	movq	%rax, -264(%rbp)        # 8-byte Spill
.LBB10_3:
	.loc	1 681 17                # /usr/local/include/benchmark/benchmark.h:681:17
	movq	-264(%rbp), %rax        # 8-byte Reload
	.loc	1 681 9                 # /usr/local/include/benchmark/benchmark.h:681:9
	movq	-256(%rbp), %rcx        # 8-byte Reload
	movq	%rax, (%rcx)
	.loc	1 681 72                # /usr/local/include/benchmark/benchmark.h:681:72
	movq	-104(%rbp), %rax
	.loc	1 681 64                # /usr/local/include/benchmark/benchmark.h:681:64
	movq	%rax, 8(%rcx)
.Ltmp184:
	.loc	1 707 3 is_stmt 1       # /usr/local/include/benchmark/benchmark.h:707:3
	movq	-120(%rbp), %rax
	movq	-112(%rbp), %rdx
.Ltmp185:
	.loc	2 187 19                # main.cc:187:19
	movq	%rax, -160(%rbp)
	movq	%rdx, -152(%rbp)
	movq	-144(%rbp), %rax
	movq	%rax, -88(%rbp)
	movq	-88(%rbp), %rdi
.Ltmp186:
	.loc	1 710 3                 # /usr/local/include/benchmark/benchmark.h:710:3
	callq	_ZN9benchmark5State16StartKeepRunningEv
	leaq	-80(%rbp), %rax
	movq	%rax, -64(%rbp)
	movq	-64(%rbp), %rax
.Ltmp187:
	.loc	1 677 21                # /usr/local/include/benchmark/benchmark.h:677:21
	movq	$0, (%rax)
	.loc	1 677 33 is_stmt 0      # /usr/local/include/benchmark/benchmark.h:677:33
	movq	$0, 8(%rax)
.Ltmp188:
	.loc	1 711 3 is_stmt 1       # /usr/local/include/benchmark/benchmark.h:711:3
	movq	-80(%rbp), %rax
	movq	-72(%rbp), %rcx
.Ltmp189:
	.loc	2 187 19                # main.cc:187:19
	movq	%rax, -176(%rbp)
	movq	%rcx, -168(%rbp)
.LBB10_4:                               # =>This Loop Header: Depth=1
                                        #     Child Loop BB10_12 Depth 2
	.loc	2 0 19 is_stmt 0        # main.cc:0:19
	leaq	-176(%rbp), %rax
	leaq	-160(%rbp), %rcx
	movq	%rcx, -48(%rbp)
	movq	%rax, -56(%rbp)
	movq	-48(%rbp), %rax
.Ltmp190:
	.loc	1 696 9 is_stmt 1       # /usr/local/include/benchmark/benchmark.h:696:9
	cmpq	$0, (%rax)
.Ltmp191:
	.loc	1 696 9 is_stmt 0       # /usr/local/include/benchmark/benchmark.h:696:9
	movq	%rax, -272(%rbp)        # 8-byte Spill
	je	.LBB10_6
# %bb.5:                                #   in Loop: Header=BB10_4 Depth=1
.Ltmp192:
	.loc	1 696 55                # /usr/local/include/benchmark/benchmark.h:696:55
	movb	$1, -33(%rbp)
	jmp	.LBB10_7
.Ltmp193:
.LBB10_6:                               #   in Loop: Header=BB10_4 Depth=1
	.loc	1 697 5 is_stmt 1       # /usr/local/include/benchmark/benchmark.h:697:5
	movq	-272(%rbp), %rax        # 8-byte Reload
	movq	8(%rax), %rdi
	.loc	1 697 14 is_stmt 0      # /usr/local/include/benchmark/benchmark.h:697:14
	callq	_ZN9benchmark5State17FinishKeepRunningEv
	.loc	1 698 5 is_stmt 1       # /usr/local/include/benchmark/benchmark.h:698:5
	movb	$0, -33(%rbp)
.Ltmp194:
.LBB10_7:                               #   in Loop: Header=BB10_4 Depth=1
	.loc	2 187 19                # main.cc:187:19
	testb	$1, -33(%rbp)
	jne	.LBB10_8
	jmp	.LBB10_29
.LBB10_8:                               #   in Loop: Header=BB10_4 Depth=1
	.loc	2 0 19 is_stmt 0        # main.cc:0:19
	leaq	-216(%rbp), %rdi
	leaq	-160(%rbp), %rax
	movq	%rax, -32(%rbp)
.Ltmp195:
	#DEBUG_VALUE: c <- [%rdi+0]
	.loc	2 188 15 is_stmt 1      # main.cc:188:15
	callq	_ZN6vectorIm24mmaprealloc_populate_verImEEC2Ev
.Ltmp196:
	.loc	2 189 26                # main.cc:189:26
	movq	-136(%rbp), %rax
	movq	%rax, -16(%rbp)
	movq	$0, -24(%rbp)
	movq	-16(%rbp), %rax
.Ltmp197:
	.loc	1 561 5                 # /usr/local/include/benchmark/benchmark.h:561:5
	movq	%rax, %rdi
	addq	$32, %rdi
	movq	%rax, -280(%rbp)        # 8-byte Spill
	callq	_ZNKSt6vectorIiSaIiEE4sizeEv
	cmpq	-24(%rbp), %rax
	ja	.LBB10_10
# %bb.9:
	.loc	1 0 5 is_stmt 0         # /usr/local/include/benchmark/benchmark.h:0:5
	movabsq	$.L.str.8, %rdi
	movabsq	$.L.str.9, %rsi
	movl	$561, %edx              # imm = 0x231
	movabsq	$.L__PRETTY_FUNCTION__._ZNK9benchmark5State5rangeEm, %rcx
	.loc	1 561 5                 # /usr/local/include/benchmark/benchmark.h:561:5
	callq	__assert_fail
.LBB10_10:                              #   in Loop: Header=BB10_4 Depth=1
	.loc	1 562 12 is_stmt 1      # /usr/local/include/benchmark/benchmark.h:562:12
	movq	-280(%rbp), %rax        # 8-byte Reload
	addq	$32, %rax
	.loc	1 562 19 is_stmt 0      # /usr/local/include/benchmark/benchmark.h:562:19
	movq	-24(%rbp), %rsi
	.loc	1 562 12                # /usr/local/include/benchmark/benchmark.h:562:12
	movq	%rax, %rdi
	callq	_ZNKSt6vectorIiSaIiEEixEm
	movl	(%rax), %ecx
	movl	%ecx, -284(%rbp)        # 4-byte Spill
.Ltmp198:
# %bb.11:                               #   in Loop: Header=BB10_4 Depth=1
	.loc	2 189 22 is_stmt 1      # main.cc:189:22
	movl	-284(%rbp), %eax        # 4-byte Reload
	movl	%eax, -220(%rbp)
.LBB10_12:                              #   Parent Loop BB10_4 Depth=1
                                        # =>  This Inner Loop Header: Depth=2
.Ltmp199:
	.loc	2 189 42 is_stmt 0      # main.cc:189:42
	movl	-220(%rbp), %eax
	addl	$-1, %eax
	movl	%eax, -220(%rbp)
	.loc	2 189 46                # main.cc:189:46
	cmpl	$0, %eax
.Ltmp200:
	.loc	2 189 13                # main.cc:189:13
	jl	.LBB10_24
# %bb.13:                               #   in Loop: Header=BB10_12 Depth=2
.Ltmp201:
	.loc	2 191 42 is_stmt 1      # main.cc:191:42
	movb	-220(%rbp), %al
	.loc	2 191 36 is_stmt 0      # main.cc:191:36
	movb	%al, -237(%rbp)
.Ltmp170:
	leaq	-216(%rbp), %rdi
	leaq	-237(%rbp), %rsi
	.loc	2 191 23                # main.cc:191:23
	callq	_ZN6vectorIm24mmaprealloc_populate_verImEE12emplace_backIJcEEEvDpOT_
.Ltmp171:
	jmp	.LBB10_14
.LBB10_14:                              #   in Loop: Header=BB10_12 Depth=2
	.loc	2 192 17 is_stmt 1      # main.cc:192:17
	jmp	.LBB10_21
.Ltmp202:
.LBB10_15:
.Ltmp181:
	.loc	2 196 5                 # main.cc:196:5
	movl	%edx, %ecx
	movq	%rax, -232(%rbp)
	movl	%ecx, -236(%rbp)
	jmp	.LBB10_28
.LBB10_16:                              #   in Loop: Header=BB10_12 Depth=2
.Ltmp172:
.Ltmp203:
	.loc	2 196 5 is_stmt 0       # main.cc:196:5
	movl	%edx, %ecx
	movq	%rax, -232(%rbp)
	movl	%ecx, -236(%rbp)
# %bb.17:                               #   in Loop: Header=BB10_12 Depth=2
	.loc	2 192 17 is_stmt 1      # main.cc:192:17
	movl	-236(%rbp), %eax
	movl	$1, %ecx
	cmpl	%ecx, %eax
	jne	.LBB10_28
# %bb.18:                               #   in Loop: Header=BB10_12 Depth=2
	movq	-232(%rbp), %rax
	movq	%rax, %rdi
	movq	%rax, -296(%rbp)        # 8-byte Spill
	callq	__cxa_get_exception_ptr
	leaq	-248(%rbp), %rdi
.Ltmp204:
	.loc	2 192 40 is_stmt 0      # main.cc:192:40
	movq	%rdi, -304(%rbp)        # 8-byte Spill
	movq	%rax, %rsi
	callq	_ZNSt9bad_allocC2ERKS_
.Ltmp205:
	.loc	2 192 17                # main.cc:192:17
	movq	-296(%rbp), %rdi        # 8-byte Reload
	callq	__cxa_begin_catch
.Ltmp206:
	.loc	2 193 21 is_stmt 1      # main.cc:193:21
	movq	-136(%rbp), %rdi
	.loc	2 193 43 is_stmt 0      # main.cc:193:43
	movq	-304(%rbp), %rsi        # 8-byte Reload
	movq	%rdi, -312(%rbp)        # 8-byte Spill
	movq	%rsi, %rdi
	movq	%rax, -320(%rbp)        # 8-byte Spill
	callq	_ZNKSt9bad_alloc4whatEv
.Ltmp173:
	.loc	2 193 27                # main.cc:193:27
	movq	-312(%rbp), %rdi        # 8-byte Reload
	movq	%rax, %rsi
	callq	_ZN9benchmark5State13SkipWithErrorEPKc
.Ltmp174:
	jmp	.LBB10_19
.LBB10_19:                              #   in Loop: Header=BB10_12 Depth=2
	.loc	2 0 27                  # main.cc:0:27
	leaq	-248(%rbp), %rdi
	.loc	2 194 17 is_stmt 1      # main.cc:194:17
	callq	_ZNSt9bad_allocD1Ev
.Ltmp179:
	callq	__cxa_end_catch
.Ltmp180:
	jmp	.LBB10_20
.LBB10_20:                              #   in Loop: Header=BB10_12 Depth=2
	jmp	.LBB10_21
.Ltmp207:
.LBB10_21:                              #   in Loop: Header=BB10_12 Depth=2
	.loc	2 189 13                # main.cc:189:13
	jmp	.LBB10_12
.LBB10_22:
.Ltmp175:
.Ltmp208:
	.loc	2 196 5                 # main.cc:196:5
	movl	%edx, %ecx
	movq	%rax, -232(%rbp)
	movl	%ecx, -236(%rbp)
	leaq	-248(%rbp), %rdi
	.loc	2 194 17                # main.cc:194:17
	callq	_ZNSt9bad_allocD1Ev
.Ltmp176:
	callq	__cxa_end_catch
.Ltmp177:
	jmp	.LBB10_23
.LBB10_23:
	jmp	.LBB10_28
.Ltmp209:
.LBB10_24:                              #   in Loop: Header=BB10_4 Depth=1
	.loc	2 0 17 is_stmt 0        # main.cc:0:17
	leaq	-216(%rbp), %rdi
	.loc	2 195 9 is_stmt 1       # main.cc:195:9
	callq	_ZN6vectorIm24mmaprealloc_populate_verImEED2Ev
.Ltmp210:
# %bb.25:                               #   in Loop: Header=BB10_4 Depth=1
	.loc	2 0 9 is_stmt 0         # main.cc:0:9
	leaq	-160(%rbp), %rax
	movq	%rax, -8(%rbp)
	movq	-8(%rbp), %rax
.Ltmp211:
	.loc	1 689 5 is_stmt 1       # /usr/local/include/benchmark/benchmark.h:689:5
	cmpq	$0, (%rax)
	movq	%rax, -328(%rbp)        # 8-byte Spill
	ja	.LBB10_27
# %bb.26:
	.loc	1 0 5 is_stmt 0         # /usr/local/include/benchmark/benchmark.h:0:5
	movabsq	$.L.str.10, %rdi
	movabsq	$.L.str.9, %rsi
	movl	$689, %edx              # imm = 0x2B1
	movabsq	$.L__PRETTY_FUNCTION__._ZN9benchmark5State13StateIteratorppEv, %rcx
	.loc	1 689 5                 # /usr/local/include/benchmark/benchmark.h:689:5
	callq	__assert_fail
.LBB10_27:                              #   in Loop: Header=BB10_4 Depth=1
	.loc	1 690 5 is_stmt 1       # /usr/local/include/benchmark/benchmark.h:690:5
	movq	-328(%rbp), %rax        # 8-byte Reload
	movq	(%rax), %rcx
	addq	$-1, %rcx
	movq	%rcx, (%rax)
.Ltmp212:
	.loc	2 187 19                # main.cc:187:19
	jmp	.LBB10_4
.LBB10_28:
	.loc	2 0 19 is_stmt 0        # main.cc:0:19
	leaq	-216(%rbp), %rdi
.Ltmp213:
	.loc	2 195 9 is_stmt 1       # main.cc:195:9
	callq	_ZN6vectorIm24mmaprealloc_populate_verImEED2Ev
	jmp	.LBB10_30
.Ltmp214:
.LBB10_29:
	.loc	2 196 5                 # main.cc:196:5
	addq	$336, %rsp              # imm = 0x150
	popq	%rbp
	retq
.LBB10_30:
.Ltmp215:
	.loc	2 195 9                 # main.cc:195:9
	movq	-232(%rbp), %rdi
	callq	_Unwind_Resume
.LBB10_31:
.Ltmp178:
.Ltmp216:
	.loc	2 194 17                # main.cc:194:17
	movl	%edx, %ecx
	movq	%rax, %rdi
	movl	%ecx, -332(%rbp)        # 4-byte Spill
	callq	__clang_call_terminate
.Ltmp217:
.Lfunc_end10:
	.size	_ZL9BM_vectorI6vectorIm24mmaprealloc_populate_verImEEEvRN9benchmark5StateE, .Lfunc_end10-_ZL9BM_vectorI6vectorIm24mmaprealloc_populate_verImEEEvRN9benchmark5StateE
	.cfi_endproc
	.section	.gcc_except_table,"a",@progbits
	.p2align	2
GCC_except_table10:
.Lexception7:
	.byte	255                     # @LPStart Encoding = omit
	.byte	3                       # @TType Encoding = udata4
	.asciz	"\353\200"              # @TType base offset
	.byte	3                       # Call site Encoding = udata4
	.byte	91                      # Call site table length
	.long	.Lfunc_begin10-.Lfunc_begin10 # >> Call Site 1 <<
	.long	.Ltmp170-.Lfunc_begin10 #   Call between .Lfunc_begin10 and .Ltmp170
	.long	0                       #     has no landing pad
	.byte	0                       #   On action: cleanup
	.long	.Ltmp170-.Lfunc_begin10 # >> Call Site 2 <<
	.long	.Ltmp171-.Ltmp170       #   Call between .Ltmp170 and .Ltmp171
	.long	.Ltmp172-.Lfunc_begin10 #     jumps to .Ltmp172
	.byte	3                       #   On action: 2
	.long	.Ltmp171-.Lfunc_begin10 # >> Call Site 3 <<
	.long	.Ltmp173-.Ltmp171       #   Call between .Ltmp171 and .Ltmp173
	.long	0                       #     has no landing pad
	.byte	0                       #   On action: cleanup
	.long	.Ltmp173-.Lfunc_begin10 # >> Call Site 4 <<
	.long	.Ltmp174-.Ltmp173       #   Call between .Ltmp173 and .Ltmp174
	.long	.Ltmp175-.Lfunc_begin10 #     jumps to .Ltmp175
	.byte	0                       #   On action: cleanup
	.long	.Ltmp179-.Lfunc_begin10 # >> Call Site 5 <<
	.long	.Ltmp180-.Ltmp179       #   Call between .Ltmp179 and .Ltmp180
	.long	.Ltmp181-.Lfunc_begin10 #     jumps to .Ltmp181
	.byte	0                       #   On action: cleanup
	.long	.Ltmp176-.Lfunc_begin10 # >> Call Site 6 <<
	.long	.Ltmp177-.Ltmp176       #   Call between .Ltmp176 and .Ltmp177
	.long	.Ltmp178-.Lfunc_begin10 #     jumps to .Ltmp178
	.byte	5                       #   On action: 3
	.long	.Ltmp177-.Lfunc_begin10 # >> Call Site 7 <<
	.long	.Lfunc_end10-.Ltmp177   #   Call between .Ltmp177 and .Lfunc_end10
	.long	0                       #     has no landing pad
	.byte	0                       #   On action: cleanup
	.byte	0                       # >> Action Record 1 <<
                                        #   Cleanup
	.byte	0                       #   No further actions
	.byte	1                       # >> Action Record 2 <<
                                        #   Catch TypeInfo 1
	.byte	125                     #   Continue to action 1
	.byte	2                       # >> Action Record 3 <<
                                        #   Catch TypeInfo 2
	.byte	0                       #   No further actions
                                        # >> Catch TypeInfos <<
	.long	0                       # TypeInfo 2
	.long	_ZTISt9bad_alloc        # TypeInfo 1
	.p2align	2
                                        # -- End function
	.text
	.globl	main                    # -- Begin function main
	.p2align	4, 0x90
	.type	main,@function
main:                                   # @main
.Lfunc_begin11:
	.loc	2 204 0                 # main.cc:204:0
	.cfi_startproc
# %bb.0:
	pushq	%rbp
	.cfi_def_cfa_offset 16
	.cfi_offset %rbp, -16
	movq	%rsp, %rbp
	.cfi_def_cfa_register %rbp
	subq	$32, %rsp
	leaq	-8(%rbp), %rax
	movl	$0, -4(%rbp)
	movl	%edi, -8(%rbp)
	#DEBUG_VALUE: main:argc <- [%rax+0]
	movq	%rsi, -16(%rbp)
.Ltmp218:
	.loc	2 204 5 prologue_end    # main.cc:204:5
	movq	-16(%rbp), %rsi
	movq	%rax, %rdi
	callq	_ZN9benchmark10InitializeEPiPPc
.Ltmp219:
	.loc	2 204 5 is_stmt 0       # main.cc:204:5
	movl	-8(%rbp), %edi
	movq	-16(%rbp), %rsi
	callq	_ZN9benchmark27ReportUnrecognizedArgumentsEiPPc
.Ltmp220:
	.loc	2 204 5                 # main.cc:204:5
	testb	$1, %al
	jne	.LBB11_1
	jmp	.LBB11_2
.LBB11_1:
.Ltmp221:
	.loc	2 204 5                 # main.cc:204:5
	movl	$1, -4(%rbp)
	jmp	.LBB11_3
.Ltmp222:
.LBB11_2:
	.loc	2 204 5                 # main.cc:204:5
	callq	_ZN9benchmark22RunSpecifiedBenchmarksEv
	movq	%rax, -24(%rbp)         # 8-byte Spill
.LBB11_3:
	movl	-4(%rbp), %eax
	addq	$32, %rsp
	popq	%rbp
	retq
.Ltmp223:
.Lfunc_end11:
	.size	main, .Lfunc_end11-main
	.cfi_endproc
                                        # -- End function
	.section	.text._ZN6vectorIcSaIcEEC2Ev,"axG",@progbits,_ZN6vectorIcSaIcEEC2Ev,comdat
	.weak	_ZN6vectorIcSaIcEEC2Ev  # -- Begin function _ZN6vectorIcSaIcEEC2Ev
	.p2align	4, 0x90
	.type	_ZN6vectorIcSaIcEEC2Ev,@function
_ZN6vectorIcSaIcEEC2Ev:                 # @_ZN6vectorIcSaIcEEC2Ev
.Lfunc_begin12:
	.loc	2 156 0 is_stmt 1       # main.cc:156:0
	.cfi_startproc
# %bb.0:
	pushq	%rbp
	.cfi_def_cfa_offset 16
	.cfi_offset %rbp, -16
	movq	%rsp, %rbp
	.cfi_def_cfa_register %rbp
	subq	$16, %rsp
	movq	%rdi, -8(%rbp)
	movq	-8(%rbp), %rdi
.Ltmp224:
	.loc	2 156 12 prologue_end   # main.cc:156:12
	movq	%rdi, %rax
	movq	%rdi, -16(%rbp)         # 8-byte Spill
	movq	%rax, %rdi
	callq	_ZNSaIcEC2Ev
	.loc	2 160 17                # main.cc:160:17
	movq	-16(%rbp), %rax         # 8-byte Reload
	movq	$0, (%rax)
	.loc	2 161 16                # main.cc:161:16
	movq	$0, 8(%rax)
	.loc	2 162 16                # main.cc:162:16
	movq	$0, 16(%rax)
	.loc	2 156 12                # main.cc:156:12
	addq	$16, %rsp
	popq	%rbp
	retq
.Ltmp225:
.Lfunc_end12:
	.size	_ZN6vectorIcSaIcEEC2Ev, .Lfunc_end12-_ZN6vectorIcSaIcEEC2Ev
	.cfi_endproc
                                        # -- End function
	.section	.text._ZN6vectorIcSaIcEE12emplace_backIJcEEEvDpOT_,"axG",@progbits,_ZN6vectorIcSaIcEE12emplace_backIJcEEEvDpOT_,comdat
	.weak	_ZN6vectorIcSaIcEE12emplace_backIJcEEEvDpOT_ # -- Begin function _ZN6vectorIcSaIcEE12emplace_backIJcEEEvDpOT_
	.p2align	4, 0x90
	.type	_ZN6vectorIcSaIcEE12emplace_backIJcEEEvDpOT_,@function
_ZN6vectorIcSaIcEE12emplace_backIJcEEEvDpOT_: # @_ZN6vectorIcSaIcEE12emplace_backIJcEEEvDpOT_
.Lfunc_begin13:
	.loc	2 169 0                 # main.cc:169:0
	.cfi_startproc
# %bb.0:
	pushq	%rbp
	.cfi_def_cfa_offset 16
	.cfi_offset %rbp, -16
	movq	%rsp, %rbp
	.cfi_def_cfa_register %rbp
	subq	$48, %rsp
	movq	%rdi, -8(%rbp)
	movq	%rsi, -16(%rbp)
	movq	-8(%rbp), %rsi
.Ltmp226:
	.loc	2 170 17 prologue_end   # main.cc:170:17
	movq	8(%rsi), %rdi
	.loc	2 170 22 is_stmt 0      # main.cc:170:22
	cmpq	16(%rsi), %rdi
.Ltmp227:
	.loc	2 170 17                # main.cc:170:17
	movq	%rsi, -24(%rbp)         # 8-byte Spill
	jne	.LBB13_2
# %bb.1:
.Ltmp228:
	.loc	2 171 17 is_stmt 1      # main.cc:171:17
	movq	-24(%rbp), %rdi         # 8-byte Reload
	callq	_ZN6vectorIcSaIcEE15double_the_sizeEv
.Ltmp229:
.LBB13_2:
	.loc	2 172 37                # main.cc:172:37
	movq	-24(%rbp), %rax         # 8-byte Reload
	.loc	2 172 45 is_stmt 0      # main.cc:172:45
	movq	-24(%rbp), %rcx         # 8-byte Reload
	movq	(%rcx), %rdx
	.loc	2 172 53                # main.cc:172:53
	movq	8(%rcx), %rsi
	movq	%rsi, %rdi
	addq	$1, %rdi
	movq	%rdi, 8(%rcx)
	.loc	2 172 45                # main.cc:172:45
	addq	%rsi, %rdx
	.loc	2 172 77                # main.cc:172:77
	movq	-16(%rbp), %rdi
	.loc	2 172 58                # main.cc:172:58
	movq	%rax, -32(%rbp)         # 8-byte Spill
	movq	%rdx, -40(%rbp)         # 8-byte Spill
	callq	_ZSt7forwardIcEOT_RNSt16remove_referenceIS0_E4typeE
	.loc	2 172 13                # main.cc:172:13
	movq	-32(%rbp), %rdi         # 8-byte Reload
	movq	-40(%rbp), %rsi         # 8-byte Reload
	movq	%rax, %rdx
	callq	_ZNSt16allocator_traitsISaIcEE9constructIcJcEEEvRS0_PT_DpOT0_
	.loc	2 173 9 is_stmt 1       # main.cc:173:9
	addq	$48, %rsp
	popq	%rbp
	retq
.Ltmp230:
.Lfunc_end13:
	.size	_ZN6vectorIcSaIcEE12emplace_backIJcEEEvDpOT_, .Lfunc_end13-_ZN6vectorIcSaIcEE12emplace_backIJcEEEvDpOT_
	.cfi_endproc
                                        # -- End function
	.section	.text._ZNSt9bad_allocC2ERKS_,"axG",@progbits,_ZNSt9bad_allocC2ERKS_,comdat
	.weak	_ZNSt9bad_allocC2ERKS_  # -- Begin function _ZNSt9bad_allocC2ERKS_
	.p2align	4, 0x90
	.type	_ZNSt9bad_allocC2ERKS_,@function
_ZNSt9bad_allocC2ERKS_:                 # @_ZNSt9bad_allocC2ERKS_
.Lfunc_begin14:
	.file	37 "/usr/lib/gcc/x86_64-linux-gnu/6.3.0/../../../../include/c++/6.3.0" "new"
	.loc	37 54 0                 # /usr/lib/gcc/x86_64-linux-gnu/6.3.0/../../../../include/c++/6.3.0/new:54:0
	.cfi_startproc
# %bb.0:
	pushq	%rbp
	.cfi_def_cfa_offset 16
	.cfi_offset %rbp, -16
	movq	%rsp, %rbp
	.cfi_def_cfa_register %rbp
	subq	$32, %rsp
	movq	%rdi, -8(%rbp)
	movq	%rsi, -16(%rbp)
	movq	-8(%rbp), %rsi
.Ltmp231:
	.loc	37 54 9 prologue_end    # /usr/lib/gcc/x86_64-linux-gnu/6.3.0/../../../../include/c++/6.3.0/new:54:9
	movq	%rsi, %rdi
	movq	-16(%rbp), %rax
	movq	%rsi, -24(%rbp)         # 8-byte Spill
	movq	%rax, %rsi
	callq	_ZNSt9exceptionC2ERKS_
	movabsq	$_ZTVSt9bad_alloc, %rax
	addq	$16, %rax
	movq	-24(%rbp), %rsi         # 8-byte Reload
	movq	%rax, (%rsi)
	addq	$32, %rsp
	popq	%rbp
	retq
.Ltmp232:
.Lfunc_end14:
	.size	_ZNSt9bad_allocC2ERKS_, .Lfunc_end14-_ZNSt9bad_allocC2ERKS_
	.cfi_endproc
                                        # -- End function
	.section	.text.__clang_call_terminate,"axG",@progbits,__clang_call_terminate,comdat
	.hidden	__clang_call_terminate  # -- Begin function __clang_call_terminate
	.weak	__clang_call_terminate
	.p2align	4, 0x90
	.type	__clang_call_terminate,@function
__clang_call_terminate:                 # @__clang_call_terminate
.Lfunc_begin15:
	.cfi_startproc
# %bb.0:
	pushq	%rax
	.cfi_def_cfa_offset 16
	callq	__cxa_begin_catch
	movq	%rax, (%rsp)            # 8-byte Spill
	callq	_ZSt9terminatev
.Lfunc_end15:
	.size	__clang_call_terminate, .Lfunc_end15-__clang_call_terminate
	.cfi_endproc
                                        # -- End function
	.section	.text._ZN6vectorIcSaIcEED2Ev,"axG",@progbits,_ZN6vectorIcSaIcEED2Ev,comdat
	.weak	_ZN6vectorIcSaIcEED2Ev  # -- Begin function _ZN6vectorIcSaIcEED2Ev
	.p2align	4, 0x90
	.type	_ZN6vectorIcSaIcEED2Ev,@function
_ZN6vectorIcSaIcEED2Ev:                 # @_ZN6vectorIcSaIcEED2Ev
.Lfunc_begin16:
	.loc	2 164 0                 # main.cc:164:0
	.cfi_startproc
	.cfi_personality 3, __gxx_personality_v0
	.cfi_lsda 3, .Lexception8
# %bb.0:
	pushq	%rbp
	.cfi_def_cfa_offset 16
	.cfi_offset %rbp, -16
	movq	%rsp, %rbp
	.cfi_def_cfa_register %rbp
	subq	$32, %rsp
	movq	%rdi, -8(%rbp)
	movq	-8(%rbp), %rdi
.Ltmp236:
	.loc	2 165 45 prologue_end   # main.cc:165:45
	movq	(%rdi), %rsi
	.loc	2 165 50 is_stmt 0      # main.cc:165:50
	movq	16(%rdi), %rdx
.Ltmp233:
	.loc	2 165 13                # main.cc:165:13
	movq	%rdi, -32(%rbp)         # 8-byte Spill
	callq	_ZNSt16allocator_traitsISaIcEE10deallocateERS0_Pcm
.Ltmp234:
	jmp	.LBB16_1
.LBB16_1:
	.loc	2 166 9 is_stmt 1       # main.cc:166:9
	movq	-32(%rbp), %rax         # 8-byte Reload
	movq	%rax, %rdi
	callq	_ZNSaIcED2Ev
.Ltmp237:
	.loc	2 166 9 is_stmt 0       # main.cc:166:9
	addq	$32, %rsp
	popq	%rbp
	retq
.LBB16_2:
.Ltmp235:
.Ltmp238:
	.loc	2 166 9                 # main.cc:166:9
	movl	%edx, %ecx
	movq	%rax, -16(%rbp)
	movl	%ecx, -20(%rbp)
	movq	-32(%rbp), %rax         # 8-byte Reload
	movq	%rax, %rdi
	callq	_ZNSaIcED2Ev
.Ltmp239:
# %bb.3:
	.loc	2 166 9                 # main.cc:166:9
	movq	-16(%rbp), %rdi
	callq	__cxa_call_unexpected
.Ltmp240:
.Lfunc_end16:
	.size	_ZN6vectorIcSaIcEED2Ev, .Lfunc_end16-_ZN6vectorIcSaIcEED2Ev
	.cfi_endproc
	.section	.gcc_except_table,"a",@progbits
	.p2align	2
GCC_except_table16:
.Lexception8:
	.byte	255                     # @LPStart Encoding = omit
	.byte	3                       # @TType Encoding = udata4
	.asciz	"\240"                  # @TType base offset
	.byte	3                       # Call site Encoding = udata4
	.byte	26                      # Call site table length
	.long	.Ltmp233-.Lfunc_begin16 # >> Call Site 1 <<
	.long	.Ltmp234-.Ltmp233       #   Call between .Ltmp233 and .Ltmp234
	.long	.Ltmp235-.Lfunc_begin16 #     jumps to .Ltmp235
	.byte	3                       #   On action: 2
	.long	.Ltmp234-.Lfunc_begin16 # >> Call Site 2 <<
	.long	.Lfunc_end16-.Ltmp234   #   Call between .Ltmp234 and .Lfunc_end16
	.long	0                       #     has no landing pad
	.byte	0                       #   On action: cleanup
	.byte	0                       # >> Action Record 1 <<
                                        #   Cleanup
	.byte	0                       #   No further actions
	.byte	127                     # >> Action Record 2 <<
                                        #   Filter TypeInfo -1
	.byte	125                     #   Continue to action 1
                                        # >> Filter TypeInfos <<
	.byte	0
	.p2align	2
                                        # -- End function
	.section	.text._ZNKSt6vectorIiSaIiEE4sizeEv,"axG",@progbits,_ZNKSt6vectorIiSaIiEE4sizeEv,comdat
	.weak	_ZNKSt6vectorIiSaIiEE4sizeEv # -- Begin function _ZNKSt6vectorIiSaIiEE4sizeEv
	.p2align	4, 0x90
	.type	_ZNKSt6vectorIiSaIiEE4sizeEv,@function
_ZNKSt6vectorIiSaIiEE4sizeEv:           # @_ZNKSt6vectorIiSaIiEE4sizeEv
.Lfunc_begin17:
	.loc	12 656 0 is_stmt 1      # /usr/lib/gcc/x86_64-linux-gnu/6.3.0/../../../../include/c++/6.3.0/bits/stl_vector.h:656:0
	.cfi_startproc
# %bb.0:
	pushq	%rbp
	.cfi_def_cfa_offset 16
	.cfi_offset %rbp, -16
	movq	%rsp, %rbp
	.cfi_def_cfa_register %rbp
	movq	%rdi, -8(%rbp)
	movq	-8(%rbp), %rdi
.Ltmp241:
	.loc	12 656 40 prologue_end  # /usr/lib/gcc/x86_64-linux-gnu/6.3.0/../../../../include/c++/6.3.0/bits/stl_vector.h:656:40
	movq	8(%rdi), %rax
	.loc	12 656 66 is_stmt 0     # /usr/lib/gcc/x86_64-linux-gnu/6.3.0/../../../../include/c++/6.3.0/bits/stl_vector.h:656:66
	movq	(%rdi), %rdi
	.loc	12 656 50               # /usr/lib/gcc/x86_64-linux-gnu/6.3.0/../../../../include/c++/6.3.0/bits/stl_vector.h:656:50
	subq	%rdi, %rax
	sarq	$2, %rax
	.loc	12 656 9                # /usr/lib/gcc/x86_64-linux-gnu/6.3.0/../../../../include/c++/6.3.0/bits/stl_vector.h:656:9
	popq	%rbp
	retq
.Ltmp242:
.Lfunc_end17:
	.size	_ZNKSt6vectorIiSaIiEE4sizeEv, .Lfunc_end17-_ZNKSt6vectorIiSaIiEE4sizeEv
	.cfi_endproc
                                        # -- End function
	.section	.text._ZNKSt6vectorIiSaIiEEixEm,"axG",@progbits,_ZNKSt6vectorIiSaIiEEixEm,comdat
	.weak	_ZNKSt6vectorIiSaIiEEixEm # -- Begin function _ZNKSt6vectorIiSaIiEEixEm
	.p2align	4, 0x90
	.type	_ZNKSt6vectorIiSaIiEEixEm,@function
_ZNKSt6vectorIiSaIiEEixEm:              # @_ZNKSt6vectorIiSaIiEEixEm
.Lfunc_begin18:
	.loc	12 796 0 is_stmt 1      # /usr/lib/gcc/x86_64-linux-gnu/6.3.0/../../../../include/c++/6.3.0/bits/stl_vector.h:796:0
	.cfi_startproc
# %bb.0:
	pushq	%rbp
	.cfi_def_cfa_offset 16
	.cfi_offset %rbp, -16
	movq	%rsp, %rbp
	.cfi_def_cfa_register %rbp
	movq	%rdi, -8(%rbp)
	movq	%rsi, -16(%rbp)
	movq	-8(%rbp), %rsi
.Ltmp243:
	.loc	12 796 32 prologue_end  # /usr/lib/gcc/x86_64-linux-gnu/6.3.0/../../../../include/c++/6.3.0/bits/stl_vector.h:796:32
	movq	(%rsi), %rsi
	.loc	12 796 43 is_stmt 0     # /usr/lib/gcc/x86_64-linux-gnu/6.3.0/../../../../include/c++/6.3.0/bits/stl_vector.h:796:43
	movq	-16(%rbp), %rdi
	.loc	12 796 41               # /usr/lib/gcc/x86_64-linux-gnu/6.3.0/../../../../include/c++/6.3.0/bits/stl_vector.h:796:41
	shlq	$2, %rdi
	addq	%rdi, %rsi
	.loc	12 796 9                # /usr/lib/gcc/x86_64-linux-gnu/6.3.0/../../../../include/c++/6.3.0/bits/stl_vector.h:796:9
	movq	%rsi, %rax
	popq	%rbp
	retq
.Ltmp244:
.Lfunc_end18:
	.size	_ZNKSt6vectorIiSaIiEEixEm, .Lfunc_end18-_ZNKSt6vectorIiSaIiEEixEm
	.cfi_endproc
                                        # -- End function
	.section	.text._ZN6vectorIcSaIcEE15double_the_sizeEv,"axG",@progbits,_ZN6vectorIcSaIcEE15double_the_sizeEv,comdat
	.weak	_ZN6vectorIcSaIcEE15double_the_sizeEv # -- Begin function _ZN6vectorIcSaIcEE15double_the_sizeEv
	.p2align	4, 0x90
	.type	_ZN6vectorIcSaIcEE15double_the_sizeEv,@function
_ZN6vectorIcSaIcEE15double_the_sizeEv:  # @_ZN6vectorIcSaIcEE15double_the_sizeEv
.Lfunc_begin19:
	.loc	2 174 0 is_stmt 1       # main.cc:174:0
	.cfi_startproc
# %bb.0:
	pushq	%rbp
	.cfi_def_cfa_offset 16
	.cfi_offset %rbp, -16
	movq	%rsp, %rbp
	.cfi_def_cfa_register %rbp
	subq	$16, %rsp
	movq	%rdi, -8(%rbp)
	movq	-8(%rbp), %rdi
.Ltmp245:
	.loc	2 175 36 prologue_end   # main.cc:175:36
	cmpq	$0, 16(%rdi)
	setne	%al
	.loc	2 175 35 is_stmt 0      # main.cc:175:35
	xorb	$-1, %al
	.loc	2 175 34                # main.cc:175:34
	xorb	$-1, %al
.Ltmp246:
	.loc	2 175 17                # main.cc:175:17
	testb	$1, %al
	movq	%rdi, -16(%rbp)         # 8-byte Spill
	jne	.LBB19_1
	jmp	.LBB19_2
.LBB19_1:
.Ltmp247:
	.loc	2 176 23 is_stmt 1      # main.cc:176:23
	movq	-16(%rbp), %rax         # 8-byte Reload
	movq	16(%rax), %rcx
	shlq	$1, %rcx
	movq	%rcx, 16(%rax)
	.loc	2 177 55                # main.cc:177:55
	movq	-16(%rbp), %rcx         # 8-byte Reload
	movq	(%rcx), %rsi
	.loc	2 177 60 is_stmt 0      # main.cc:177:60
	movq	8(%rcx), %rdx
	.loc	2 177 66                # main.cc:177:66
	movq	16(%rcx), %rcx
	.loc	2 177 23                # main.cc:177:23
	movq	%rax, %rdi
	callq	_ZN16allocator_traitsISaIcEE10reallocateERS0_Pcmm
	.loc	2 177 21                # main.cc:177:21
	movq	-16(%rbp), %rcx         # 8-byte Reload
	movq	%rax, (%rcx)
	.loc	2 178 13 is_stmt 1      # main.cc:178:13
	jmp	.LBB19_3
.Ltmp248:
.LBB19_2:
	.loc	2 179 23                # main.cc:179:23
	movq	-16(%rbp), %rax         # 8-byte Reload
	movq	$16, 16(%rax)
	.loc	2 180 53                # main.cc:180:53
	movq	-16(%rbp), %rcx         # 8-byte Reload
	movq	16(%rcx), %rsi
	.loc	2 180 23 is_stmt 0      # main.cc:180:23
	movq	%rax, %rdi
	callq	_ZNSt16allocator_traitsISaIcEE8allocateERS0_m
	.loc	2 180 21                # main.cc:180:21
	movq	-16(%rbp), %rcx         # 8-byte Reload
	movq	%rax, (%rcx)
.Ltmp249:
.LBB19_3:
	.loc	2 182 9 is_stmt 1       # main.cc:182:9
	addq	$16, %rsp
	popq	%rbp
	retq
.Ltmp250:
.Lfunc_end19:
	.size	_ZN6vectorIcSaIcEE15double_the_sizeEv, .Lfunc_end19-_ZN6vectorIcSaIcEE15double_the_sizeEv
	.cfi_endproc
                                        # -- End function
	.section	.text._ZNSt16allocator_traitsISaIcEE9constructIcJcEEEvRS0_PT_DpOT0_,"axG",@progbits,_ZNSt16allocator_traitsISaIcEE9constructIcJcEEEvRS0_PT_DpOT0_,comdat
	.weak	_ZNSt16allocator_traitsISaIcEE9constructIcJcEEEvRS0_PT_DpOT0_ # -- Begin function _ZNSt16allocator_traitsISaIcEE9constructIcJcEEEvRS0_PT_DpOT0_
	.p2align	4, 0x90
	.type	_ZNSt16allocator_traitsISaIcEE9constructIcJcEEEvRS0_PT_DpOT0_,@function
_ZNSt16allocator_traitsISaIcEE9constructIcJcEEEvRS0_PT_DpOT0_: # @_ZNSt16allocator_traitsISaIcEE9constructIcJcEEEvRS0_PT_DpOT0_
.Lfunc_begin20:
	.loc	6 475 0                 # /usr/lib/gcc/x86_64-linux-gnu/6.3.0/../../../../include/c++/6.3.0/bits/alloc_traits.h:475:0
	.cfi_startproc
# %bb.0:
	pushq	%rbp
	.cfi_def_cfa_offset 16
	.cfi_offset %rbp, -16
	movq	%rsp, %rbp
	.cfi_def_cfa_register %rbp
	subq	$48, %rsp
	movq	%rdi, -8(%rbp)
	movq	%rsi, -16(%rbp)
	movq	%rdx, -24(%rbp)
.Ltmp251:
	.loc	6 475 4 prologue_end    # /usr/lib/gcc/x86_64-linux-gnu/6.3.0/../../../../include/c++/6.3.0/bits/alloc_traits.h:475:4
	movq	-8(%rbp), %rdx
	.loc	6 475 18 is_stmt 0      # /usr/lib/gcc/x86_64-linux-gnu/6.3.0/../../../../include/c++/6.3.0/bits/alloc_traits.h:475:18
	movq	-16(%rbp), %rsi
	.loc	6 475 43                # /usr/lib/gcc/x86_64-linux-gnu/6.3.0/../../../../include/c++/6.3.0/bits/alloc_traits.h:475:43
	movq	-24(%rbp), %rdi
	.loc	6 475 23                # /usr/lib/gcc/x86_64-linux-gnu/6.3.0/../../../../include/c++/6.3.0/bits/alloc_traits.h:475:23
	movq	%rdx, -32(%rbp)         # 8-byte Spill
	movq	%rsi, -40(%rbp)         # 8-byte Spill
	callq	_ZSt7forwardIcEOT_RNSt16remove_referenceIS0_E4typeE
	.loc	6 475 8                 # /usr/lib/gcc/x86_64-linux-gnu/6.3.0/../../../../include/c++/6.3.0/bits/alloc_traits.h:475:8
	movq	-32(%rbp), %rdi         # 8-byte Reload
	movq	-40(%rbp), %rsi         # 8-byte Reload
	movq	%rax, %rdx
	callq	_ZN9__gnu_cxx13new_allocatorIcE9constructIcJcEEEvPT_DpOT0_
	.loc	6 475 56                # /usr/lib/gcc/x86_64-linux-gnu/6.3.0/../../../../include/c++/6.3.0/bits/alloc_traits.h:475:56
	addq	$48, %rsp
	popq	%rbp
	retq
.Ltmp252:
.Lfunc_end20:
	.size	_ZNSt16allocator_traitsISaIcEE9constructIcJcEEEvRS0_PT_DpOT0_, .Lfunc_end20-_ZNSt16allocator_traitsISaIcEE9constructIcJcEEEvRS0_PT_DpOT0_
	.cfi_endproc
                                        # -- End function
	.section	.text._ZSt7forwardIcEOT_RNSt16remove_referenceIS0_E4typeE,"axG",@progbits,_ZSt7forwardIcEOT_RNSt16remove_referenceIS0_E4typeE,comdat
	.weak	_ZSt7forwardIcEOT_RNSt16remove_referenceIS0_E4typeE # -- Begin function _ZSt7forwardIcEOT_RNSt16remove_referenceIS0_E4typeE
	.p2align	4, 0x90
	.type	_ZSt7forwardIcEOT_RNSt16remove_referenceIS0_E4typeE,@function
_ZSt7forwardIcEOT_RNSt16remove_referenceIS0_E4typeE: # @_ZSt7forwardIcEOT_RNSt16remove_referenceIS0_E4typeE
.Lfunc_begin21:
	.file	38 "/usr/lib/gcc/x86_64-linux-gnu/6.3.0/../../../../include/c++/6.3.0/bits" "move.h"
	.loc	38 77 0 is_stmt 1       # /usr/lib/gcc/x86_64-linux-gnu/6.3.0/../../../../include/c++/6.3.0/bits/move.h:77:0
	.cfi_startproc
# %bb.0:
	pushq	%rbp
	.cfi_def_cfa_offset 16
	.cfi_offset %rbp, -16
	movq	%rsp, %rbp
	.cfi_def_cfa_register %rbp
	movq	%rdi, -8(%rbp)
.Ltmp253:
	.loc	38 77 33 prologue_end   # /usr/lib/gcc/x86_64-linux-gnu/6.3.0/../../../../include/c++/6.3.0/bits/move.h:77:33
	movq	-8(%rbp), %rax
	.loc	38 77 7 is_stmt 0       # /usr/lib/gcc/x86_64-linux-gnu/6.3.0/../../../../include/c++/6.3.0/bits/move.h:77:7
	popq	%rbp
	retq
.Ltmp254:
.Lfunc_end21:
	.size	_ZSt7forwardIcEOT_RNSt16remove_referenceIS0_E4typeE, .Lfunc_end21-_ZSt7forwardIcEOT_RNSt16remove_referenceIS0_E4typeE
	.cfi_endproc
                                        # -- End function
	.section	.text._ZN16allocator_traitsISaIcEE10reallocateERS0_Pcmm,"axG",@progbits,_ZN16allocator_traitsISaIcEE10reallocateERS0_Pcmm,comdat
	.weak	_ZN16allocator_traitsISaIcEE10reallocateERS0_Pcmm # -- Begin function _ZN16allocator_traitsISaIcEE10reallocateERS0_Pcmm
	.p2align	4, 0x90
	.type	_ZN16allocator_traitsISaIcEE10reallocateERS0_Pcmm,@function
_ZN16allocator_traitsISaIcEE10reallocateERS0_Pcmm: # @_ZN16allocator_traitsISaIcEE10reallocateERS0_Pcmm
.Lfunc_begin22:
	.loc	2 137 0 is_stmt 1       # main.cc:137:0
	.cfi_startproc
# %bb.0:
	pushq	%rbp
	.cfi_def_cfa_offset 16
	.cfi_offset %rbp, -16
	movq	%rsp, %rbp
	.cfi_def_cfa_register %rbp
	subq	$64, %rsp
	movq	%rdi, -8(%rbp)
	movq	%rsi, -16(%rbp)
	movq	%rdx, -24(%rbp)
	movq	%rcx, -32(%rbp)
.Ltmp255:
	.loc	2 141 47 prologue_end   # main.cc:141:47
	movq	-8(%rbp), %rdi
	.loc	2 141 54 is_stmt 0      # main.cc:141:54
	movq	-32(%rbp), %rsi
	.loc	2 141 32                # main.cc:141:32
	callq	_ZNSt16allocator_traitsISaIcEE8allocateERS0_m
	.loc	2 141 22                # main.cc:141:22
	movq	%rax, -40(%rbp)
.Ltmp256:
	.loc	2 144 38 is_stmt 1      # main.cc:144:38
	movq	-16(%rbp), %rax
	.loc	2 144 26 is_stmt 0      # main.cc:144:26
	movq	%rax, -48(%rbp)
	.loc	2 144 59                # main.cc:144:59
	movq	-40(%rbp), %rax
	.loc	2 144 48                # main.cc:144:48
	movq	%rax, -56(%rbp)
.LBB22_1:                               # =>This Inner Loop Header: Depth=1
.Ltmp257:
	.loc	2 144 68                # main.cc:144:68
	movq	-48(%rbp), %rax
	.loc	2 144 81                # main.cc:144:81
	movq	-16(%rbp), %rcx
	.loc	2 144 90                # main.cc:144:90
	addq	-24(%rbp), %rcx
	.loc	2 144 78                # main.cc:144:78
	cmpq	%rcx, %rax
.Ltmp258:
	.loc	2 144 17                # main.cc:144:17
	je	.LBB22_4
# %bb.2:                                #   in Loop: Header=BB22_1 Depth=1
.Ltmp259:
	.loc	2 145 26 is_stmt 1      # main.cc:145:26
	movq	-56(%rbp), %rax
	.loc	2 145 58 is_stmt 0      # main.cc:145:58
	movq	-48(%rbp), %rdi
	.loc	2 145 47                # main.cc:145:47
	movq	%rax, -64(%rbp)         # 8-byte Spill
	callq	_ZSt4moveIRcEONSt16remove_referenceIT_E4typeEOS2_
	movb	(%rax), %cl
	.loc	2 145 21                # main.cc:145:21
	movq	-64(%rbp), %rax         # 8-byte Reload
	movb	%cl, (%rax)
.Ltmp260:
# %bb.3:                                #   in Loop: Header=BB22_1 Depth=1
	.loc	2 144 102 is_stmt 1     # main.cc:144:102
	movq	-48(%rbp), %rax
	addq	$1, %rax
	movq	%rax, -48(%rbp)
	.loc	2 144 115 is_stmt 0     # main.cc:144:115
	movq	-56(%rbp), %rax
	addq	$1, %rax
	movq	%rax, -56(%rbp)
	.loc	2 144 17                # main.cc:144:17
	jmp	.LBB22_1
.Ltmp261:
.LBB22_4:
	.loc	2 148 34 is_stmt 1      # main.cc:148:34
	movq	-8(%rbp), %rdi
	.loc	2 148 41 is_stmt 0      # main.cc:148:41
	movq	-16(%rbp), %rsi
	.loc	2 148 51                # main.cc:148:51
	movq	-24(%rbp), %rdx
	.loc	2 148 17                # main.cc:148:17
	callq	_ZNSt16allocator_traitsISaIcEE10deallocateERS0_Pcm
	.loc	2 150 24 is_stmt 1      # main.cc:150:24
	movq	-40(%rbp), %rax
	.loc	2 150 17 is_stmt 0      # main.cc:150:17
	addq	$64, %rsp
	popq	%rbp
	retq
.Ltmp262:
.Lfunc_end22:
	.size	_ZN16allocator_traitsISaIcEE10reallocateERS0_Pcmm, .Lfunc_end22-_ZN16allocator_traitsISaIcEE10reallocateERS0_Pcmm
	.cfi_endproc
                                        # -- End function
	.section	.text._ZNSt16allocator_traitsISaIcEE8allocateERS0_m,"axG",@progbits,_ZNSt16allocator_traitsISaIcEE8allocateERS0_m,comdat
	.weak	_ZNSt16allocator_traitsISaIcEE8allocateERS0_m # -- Begin function _ZNSt16allocator_traitsISaIcEE8allocateERS0_m
	.p2align	4, 0x90
	.type	_ZNSt16allocator_traitsISaIcEE8allocateERS0_m,@function
_ZNSt16allocator_traitsISaIcEE8allocateERS0_m: # @_ZNSt16allocator_traitsISaIcEE8allocateERS0_m
.Lfunc_begin23:
	.loc	6 436 0 is_stmt 1       # /usr/lib/gcc/x86_64-linux-gnu/6.3.0/../../../../include/c++/6.3.0/bits/alloc_traits.h:436:0
	.cfi_startproc
# %bb.0:
	pushq	%rbp
	.cfi_def_cfa_offset 16
	.cfi_offset %rbp, -16
	movq	%rsp, %rbp
	.cfi_def_cfa_register %rbp
	subq	$32, %rsp
	xorl	%eax, %eax
	movl	%eax, %edx
	movq	%rdi, -8(%rbp)
	movq	%rsi, -16(%rbp)
.Ltmp263:
	.loc	6 436 16 prologue_end   # /usr/lib/gcc/x86_64-linux-gnu/6.3.0/../../../../include/c++/6.3.0/bits/alloc_traits.h:436:16
	movq	-8(%rbp), %rsi
	.loc	6 436 29 is_stmt 0      # /usr/lib/gcc/x86_64-linux-gnu/6.3.0/../../../../include/c++/6.3.0/bits/alloc_traits.h:436:29
	movq	-16(%rbp), %rdi
	.loc	6 436 20                # /usr/lib/gcc/x86_64-linux-gnu/6.3.0/../../../../include/c++/6.3.0/bits/alloc_traits.h:436:20
	movq	%rdi, -24(%rbp)         # 8-byte Spill
	movq	%rsi, %rdi
	movq	-24(%rbp), %rsi         # 8-byte Reload
	callq	_ZN9__gnu_cxx13new_allocatorIcE8allocateEmPKv
	.loc	6 436 9                 # /usr/lib/gcc/x86_64-linux-gnu/6.3.0/../../../../include/c++/6.3.0/bits/alloc_traits.h:436:9
	addq	$32, %rsp
	popq	%rbp
	retq
.Ltmp264:
.Lfunc_end23:
	.size	_ZNSt16allocator_traitsISaIcEE8allocateERS0_m, .Lfunc_end23-_ZNSt16allocator_traitsISaIcEE8allocateERS0_m
	.cfi_endproc
                                        # -- End function
	.section	.text._ZSt4moveIRcEONSt16remove_referenceIT_E4typeEOS2_,"axG",@progbits,_ZSt4moveIRcEONSt16remove_referenceIT_E4typeEOS2_,comdat
	.weak	_ZSt4moveIRcEONSt16remove_referenceIT_E4typeEOS2_ # -- Begin function _ZSt4moveIRcEONSt16remove_referenceIT_E4typeEOS2_
	.p2align	4, 0x90
	.type	_ZSt4moveIRcEONSt16remove_referenceIT_E4typeEOS2_,@function
_ZSt4moveIRcEONSt16remove_referenceIT_E4typeEOS2_: # @_ZSt4moveIRcEONSt16remove_referenceIT_E4typeEOS2_
.Lfunc_begin24:
	.loc	38 102 0 is_stmt 1      # /usr/lib/gcc/x86_64-linux-gnu/6.3.0/../../../../include/c++/6.3.0/bits/move.h:102:0
	.cfi_startproc
# %bb.0:
	pushq	%rbp
	.cfi_def_cfa_offset 16
	.cfi_offset %rbp, -16
	movq	%rsp, %rbp
	.cfi_def_cfa_register %rbp
	movq	%rdi, -8(%rbp)
.Ltmp265:
	.loc	38 102 71 prologue_end  # /usr/lib/gcc/x86_64-linux-gnu/6.3.0/../../../../include/c++/6.3.0/bits/move.h:102:71
	movq	-8(%rbp), %rax
	.loc	38 102 7 is_stmt 0      # /usr/lib/gcc/x86_64-linux-gnu/6.3.0/../../../../include/c++/6.3.0/bits/move.h:102:7
	popq	%rbp
	retq
.Ltmp266:
.Lfunc_end24:
	.size	_ZSt4moveIRcEONSt16remove_referenceIT_E4typeEOS2_, .Lfunc_end24-_ZSt4moveIRcEONSt16remove_referenceIT_E4typeEOS2_
	.cfi_endproc
                                        # -- End function
	.section	.text._ZNSt16allocator_traitsISaIcEE10deallocateERS0_Pcm,"axG",@progbits,_ZNSt16allocator_traitsISaIcEE10deallocateERS0_Pcm,comdat
	.weak	_ZNSt16allocator_traitsISaIcEE10deallocateERS0_Pcm # -- Begin function _ZNSt16allocator_traitsISaIcEE10deallocateERS0_Pcm
	.p2align	4, 0x90
	.type	_ZNSt16allocator_traitsISaIcEE10deallocateERS0_Pcm,@function
_ZNSt16allocator_traitsISaIcEE10deallocateERS0_Pcm: # @_ZNSt16allocator_traitsISaIcEE10deallocateERS0_Pcm
.Lfunc_begin25:
	.loc	6 462 0 is_stmt 1       # /usr/lib/gcc/x86_64-linux-gnu/6.3.0/../../../../include/c++/6.3.0/bits/alloc_traits.h:462:0
	.cfi_startproc
# %bb.0:
	pushq	%rbp
	.cfi_def_cfa_offset 16
	.cfi_offset %rbp, -16
	movq	%rsp, %rbp
	.cfi_def_cfa_register %rbp
	subq	$32, %rsp
	movq	%rdi, -8(%rbp)
	movq	%rsi, -16(%rbp)
	movq	%rdx, -24(%rbp)
.Ltmp267:
	.loc	6 462 9 prologue_end    # /usr/lib/gcc/x86_64-linux-gnu/6.3.0/../../../../include/c++/6.3.0/bits/alloc_traits.h:462:9
	movq	-8(%rbp), %rdx
	.loc	6 462 24 is_stmt 0      # /usr/lib/gcc/x86_64-linux-gnu/6.3.0/../../../../include/c++/6.3.0/bits/alloc_traits.h:462:24
	movq	-16(%rbp), %rsi
	.loc	6 462 29                # /usr/lib/gcc/x86_64-linux-gnu/6.3.0/../../../../include/c++/6.3.0/bits/alloc_traits.h:462:29
	movq	-24(%rbp), %rdi
	.loc	6 462 13                # /usr/lib/gcc/x86_64-linux-gnu/6.3.0/../../../../include/c++/6.3.0/bits/alloc_traits.h:462:13
	movq	%rdi, -32(%rbp)         # 8-byte Spill
	movq	%rdx, %rdi
	movq	-32(%rbp), %rdx         # 8-byte Reload
	callq	_ZN9__gnu_cxx13new_allocatorIcE10deallocateEPcm
	.loc	6 462 35                # /usr/lib/gcc/x86_64-linux-gnu/6.3.0/../../../../include/c++/6.3.0/bits/alloc_traits.h:462:35
	addq	$32, %rsp
	popq	%rbp
	retq
.Ltmp268:
.Lfunc_end25:
	.size	_ZNSt16allocator_traitsISaIcEE10deallocateERS0_Pcm, .Lfunc_end25-_ZNSt16allocator_traitsISaIcEE10deallocateERS0_Pcm
	.cfi_endproc
                                        # -- End function
	.section	.text._ZN9__gnu_cxx13new_allocatorIcE10deallocateEPcm,"axG",@progbits,_ZN9__gnu_cxx13new_allocatorIcE10deallocateEPcm,comdat
	.weak	_ZN9__gnu_cxx13new_allocatorIcE10deallocateEPcm # -- Begin function _ZN9__gnu_cxx13new_allocatorIcE10deallocateEPcm
	.p2align	4, 0x90
	.type	_ZN9__gnu_cxx13new_allocatorIcE10deallocateEPcm,@function
_ZN9__gnu_cxx13new_allocatorIcE10deallocateEPcm: # @_ZN9__gnu_cxx13new_allocatorIcE10deallocateEPcm
.Lfunc_begin26:
	.loc	7 110 0 is_stmt 1       # /usr/lib/gcc/x86_64-linux-gnu/6.3.0/../../../../include/c++/6.3.0/ext/new_allocator.h:110:0
	.cfi_startproc
# %bb.0:
	pushq	%rbp
	.cfi_def_cfa_offset 16
	.cfi_offset %rbp, -16
	movq	%rsp, %rbp
	.cfi_def_cfa_register %rbp
	subq	$32, %rsp
	movq	%rdi, -8(%rbp)
	movq	%rsi, -16(%rbp)
	movq	%rdx, -24(%rbp)
.Ltmp269:
	.loc	7 110 27 prologue_end   # /usr/lib/gcc/x86_64-linux-gnu/6.3.0/../../../../include/c++/6.3.0/ext/new_allocator.h:110:27
	movq	-16(%rbp), %rdi
	.loc	7 110 9 is_stmt 0       # /usr/lib/gcc/x86_64-linux-gnu/6.3.0/../../../../include/c++/6.3.0/ext/new_allocator.h:110:9
	callq	_ZdlPv
	.loc	7 110 33                # /usr/lib/gcc/x86_64-linux-gnu/6.3.0/../../../../include/c++/6.3.0/ext/new_allocator.h:110:33
	addq	$32, %rsp
	popq	%rbp
	retq
.Ltmp270:
.Lfunc_end26:
	.size	_ZN9__gnu_cxx13new_allocatorIcE10deallocateEPcm, .Lfunc_end26-_ZN9__gnu_cxx13new_allocatorIcE10deallocateEPcm
	.cfi_endproc
                                        # -- End function
	.section	.text._ZN9__gnu_cxx13new_allocatorIcE8allocateEmPKv,"axG",@progbits,_ZN9__gnu_cxx13new_allocatorIcE8allocateEmPKv,comdat
	.weak	_ZN9__gnu_cxx13new_allocatorIcE8allocateEmPKv # -- Begin function _ZN9__gnu_cxx13new_allocatorIcE8allocateEmPKv
	.p2align	4, 0x90
	.type	_ZN9__gnu_cxx13new_allocatorIcE8allocateEmPKv,@function
_ZN9__gnu_cxx13new_allocatorIcE8allocateEmPKv: # @_ZN9__gnu_cxx13new_allocatorIcE8allocateEmPKv
.Lfunc_begin27:
	.loc	7 100 0 is_stmt 1       # /usr/lib/gcc/x86_64-linux-gnu/6.3.0/../../../../include/c++/6.3.0/ext/new_allocator.h:100:0
	.cfi_startproc
# %bb.0:
	pushq	%rbp
	.cfi_def_cfa_offset 16
	.cfi_offset %rbp, -16
	movq	%rsp, %rbp
	.cfi_def_cfa_register %rbp
	subq	$32, %rsp
	movq	%rdi, -8(%rbp)
	movq	%rsi, -16(%rbp)
	movq	%rdx, -24(%rbp)
	movq	-8(%rbp), %rdi
.Ltmp271:
	.loc	7 101 6 prologue_end    # /usr/lib/gcc/x86_64-linux-gnu/6.3.0/../../../../include/c++/6.3.0/ext/new_allocator.h:101:6
	movq	-16(%rbp), %rdx
	.loc	7 101 18 is_stmt 0      # /usr/lib/gcc/x86_64-linux-gnu/6.3.0/../../../../include/c++/6.3.0/ext/new_allocator.h:101:18
	movq	%rdx, -32(%rbp)         # 8-byte Spill
	callq	_ZNK9__gnu_cxx13new_allocatorIcE8max_sizeEv
	.loc	7 101 10                # /usr/lib/gcc/x86_64-linux-gnu/6.3.0/../../../../include/c++/6.3.0/ext/new_allocator.h:101:10
	movq	-32(%rbp), %rdx         # 8-byte Reload
	cmpq	%rax, %rdx
.Ltmp272:
	.loc	7 101 6                 # /usr/lib/gcc/x86_64-linux-gnu/6.3.0/../../../../include/c++/6.3.0/ext/new_allocator.h:101:6
	jbe	.LBB27_2
# %bb.1:
.Ltmp273:
	.loc	7 102 4 is_stmt 1       # /usr/lib/gcc/x86_64-linux-gnu/6.3.0/../../../../include/c++/6.3.0/ext/new_allocator.h:102:4
	callq	_ZSt17__throw_bad_allocv
.Ltmp274:
.LBB27_2:
	.loc	7 104 42                # /usr/lib/gcc/x86_64-linux-gnu/6.3.0/../../../../include/c++/6.3.0/ext/new_allocator.h:104:42
	movq	-16(%rbp), %rax
	.loc	7 104 46 is_stmt 0      # /usr/lib/gcc/x86_64-linux-gnu/6.3.0/../../../../include/c++/6.3.0/ext/new_allocator.h:104:46
	shlq	$0, %rax
	.loc	7 104 27                # /usr/lib/gcc/x86_64-linux-gnu/6.3.0/../../../../include/c++/6.3.0/ext/new_allocator.h:104:27
	movq	%rax, %rdi
	callq	_Znwm
	.loc	7 104 2                 # /usr/lib/gcc/x86_64-linux-gnu/6.3.0/../../../../include/c++/6.3.0/ext/new_allocator.h:104:2
	addq	$32, %rsp
	popq	%rbp
	retq
.Ltmp275:
.Lfunc_end27:
	.size	_ZN9__gnu_cxx13new_allocatorIcE8allocateEmPKv, .Lfunc_end27-_ZN9__gnu_cxx13new_allocatorIcE8allocateEmPKv
	.cfi_endproc
                                        # -- End function
	.section	.text._ZNK9__gnu_cxx13new_allocatorIcE8max_sizeEv,"axG",@progbits,_ZNK9__gnu_cxx13new_allocatorIcE8max_sizeEv,comdat
	.weak	_ZNK9__gnu_cxx13new_allocatorIcE8max_sizeEv # -- Begin function _ZNK9__gnu_cxx13new_allocatorIcE8max_sizeEv
	.p2align	4, 0x90
	.type	_ZNK9__gnu_cxx13new_allocatorIcE8max_sizeEv,@function
_ZNK9__gnu_cxx13new_allocatorIcE8max_sizeEv: # @_ZNK9__gnu_cxx13new_allocatorIcE8max_sizeEv
.Lfunc_begin28:
	.loc	7 114 0 is_stmt 1       # /usr/lib/gcc/x86_64-linux-gnu/6.3.0/../../../../include/c++/6.3.0/ext/new_allocator.h:114:0
	.cfi_startproc
# %bb.0:
	pushq	%rbp
	.cfi_def_cfa_offset 16
	.cfi_offset %rbp, -16
	movq	%rsp, %rbp
	.cfi_def_cfa_register %rbp
	movq	$-1, %rax
	movq	%rdi, -8(%rbp)
.Ltmp276:
	.loc	7 114 9 prologue_end    # /usr/lib/gcc/x86_64-linux-gnu/6.3.0/../../../../include/c++/6.3.0/ext/new_allocator.h:114:9
	popq	%rbp
	retq
.Ltmp277:
.Lfunc_end28:
	.size	_ZNK9__gnu_cxx13new_allocatorIcE8max_sizeEv, .Lfunc_end28-_ZNK9__gnu_cxx13new_allocatorIcE8max_sizeEv
	.cfi_endproc
                                        # -- End function
	.section	.text._ZN9__gnu_cxx13new_allocatorIcE9constructIcJcEEEvPT_DpOT0_,"axG",@progbits,_ZN9__gnu_cxx13new_allocatorIcE9constructIcJcEEEvPT_DpOT0_,comdat
	.weak	_ZN9__gnu_cxx13new_allocatorIcE9constructIcJcEEEvPT_DpOT0_ # -- Begin function _ZN9__gnu_cxx13new_allocatorIcE9constructIcJcEEEvPT_DpOT0_
	.p2align	4, 0x90
	.type	_ZN9__gnu_cxx13new_allocatorIcE9constructIcJcEEEvPT_DpOT0_,@function
_ZN9__gnu_cxx13new_allocatorIcE9constructIcJcEEEvPT_DpOT0_: # @_ZN9__gnu_cxx13new_allocatorIcE9constructIcJcEEEvPT_DpOT0_
.Lfunc_begin29:
	.loc	7 120 0                 # /usr/lib/gcc/x86_64-linux-gnu/6.3.0/../../../../include/c++/6.3.0/ext/new_allocator.h:120:0
	.cfi_startproc
# %bb.0:
	pushq	%rbp
	.cfi_def_cfa_offset 16
	.cfi_offset %rbp, -16
	movq	%rsp, %rbp
	.cfi_def_cfa_register %rbp
	subq	$32, %rsp
	movq	%rdi, -8(%rbp)
	movq	%rsi, -16(%rbp)
	movq	%rdx, -24(%rbp)
.Ltmp278:
	.loc	7 120 18 prologue_end   # /usr/lib/gcc/x86_64-linux-gnu/6.3.0/../../../../include/c++/6.3.0/ext/new_allocator.h:120:18
	movq	-16(%rbp), %rdx
	.loc	7 120 47 is_stmt 0      # /usr/lib/gcc/x86_64-linux-gnu/6.3.0/../../../../include/c++/6.3.0/ext/new_allocator.h:120:47
	movq	-24(%rbp), %rdi
	.loc	7 120 27                # /usr/lib/gcc/x86_64-linux-gnu/6.3.0/../../../../include/c++/6.3.0/ext/new_allocator.h:120:27
	movq	%rdx, -32(%rbp)         # 8-byte Spill
	callq	_ZSt7forwardIcEOT_RNSt16remove_referenceIS0_E4typeE
	movb	(%rax), %cl
	.loc	7 120 4                 # /usr/lib/gcc/x86_64-linux-gnu/6.3.0/../../../../include/c++/6.3.0/ext/new_allocator.h:120:4
	movq	-32(%rbp), %rax         # 8-byte Reload
	movb	%cl, (%rax)
	.loc	7 120 60                # /usr/lib/gcc/x86_64-linux-gnu/6.3.0/../../../../include/c++/6.3.0/ext/new_allocator.h:120:60
	addq	$32, %rsp
	popq	%rbp
	retq
.Ltmp279:
.Lfunc_end29:
	.size	_ZN9__gnu_cxx13new_allocatorIcE9constructIcJcEEEvPT_DpOT0_, .Lfunc_end29-_ZN9__gnu_cxx13new_allocatorIcE9constructIcJcEEEvPT_DpOT0_
	.cfi_endproc
                                        # -- End function
	.section	.text._ZNSt9exceptionC2ERKS_,"axG",@progbits,_ZNSt9exceptionC2ERKS_,comdat
	.weak	_ZNSt9exceptionC2ERKS_  # -- Begin function _ZNSt9exceptionC2ERKS_
	.p2align	4, 0x90
	.type	_ZNSt9exceptionC2ERKS_,@function
_ZNSt9exceptionC2ERKS_:                 # @_ZNSt9exceptionC2ERKS_
.Lfunc_begin30:
	.file	39 "/usr/lib/gcc/x86_64-linux-gnu/6.3.0/../../../../include/c++/6.3.0" "exception"
	.loc	39 62 0 is_stmt 1       # /usr/lib/gcc/x86_64-linux-gnu/6.3.0/../../../../include/c++/6.3.0/exception:62:0
	.cfi_startproc
# %bb.0:
	pushq	%rbp
	.cfi_def_cfa_offset 16
	.cfi_offset %rbp, -16
	movq	%rsp, %rbp
	.cfi_def_cfa_register %rbp
	movabsq	$_ZTVSt9exception, %rax
	addq	$16, %rax
	movq	%rdi, -8(%rbp)
	movq	%rsi, -16(%rbp)
	movq	-8(%rbp), %rsi
.Ltmp280:
	.loc	39 62 9 prologue_end    # /usr/lib/gcc/x86_64-linux-gnu/6.3.0/../../../../include/c++/6.3.0/exception:62:9
	movq	%rax, (%rsi)
	popq	%rbp
	retq
.Ltmp281:
.Lfunc_end30:
	.size	_ZNSt9exceptionC2ERKS_, .Lfunc_end30-_ZNSt9exceptionC2ERKS_
	.cfi_endproc
                                        # -- End function
	.section	.text._ZN6vectorIm8mreallocImEEC2Ev,"axG",@progbits,_ZN6vectorIm8mreallocImEEC2Ev,comdat
	.weak	_ZN6vectorIm8mreallocImEEC2Ev # -- Begin function _ZN6vectorIm8mreallocImEEC2Ev
	.p2align	4, 0x90
	.type	_ZN6vectorIm8mreallocImEEC2Ev,@function
_ZN6vectorIm8mreallocImEEC2Ev:          # @_ZN6vectorIm8mreallocImEEC2Ev
.Lfunc_begin31:
	.loc	2 156 0                 # main.cc:156:0
	.cfi_startproc
# %bb.0:
	pushq	%rbp
	.cfi_def_cfa_offset 16
	.cfi_offset %rbp, -16
	movq	%rsp, %rbp
	.cfi_def_cfa_register %rbp
	movq	%rdi, -8(%rbp)
	movq	-8(%rbp), %rdi
.Ltmp282:
	.loc	2 160 17 prologue_end   # main.cc:160:17
	movq	$0, (%rdi)
	.loc	2 161 16                # main.cc:161:16
	movq	$0, 8(%rdi)
	.loc	2 162 16                # main.cc:162:16
	movq	$0, 16(%rdi)
	.loc	2 156 12                # main.cc:156:12
	popq	%rbp
	retq
.Ltmp283:
.Lfunc_end31:
	.size	_ZN6vectorIm8mreallocImEEC2Ev, .Lfunc_end31-_ZN6vectorIm8mreallocImEEC2Ev
	.cfi_endproc
	.file	40 "/usr/lib/gcc/x86_64-linux-gnu/6.3.0/../../../../include/c++/6.3.0/bits" "ptr_traits.h"
                                        # -- End function
	.section	.text._ZN6vectorIm8mreallocImEE12emplace_backIJcEEEvDpOT_,"axG",@progbits,_ZN6vectorIm8mreallocImEE12emplace_backIJcEEEvDpOT_,comdat
	.weak	_ZN6vectorIm8mreallocImEE12emplace_backIJcEEEvDpOT_ # -- Begin function _ZN6vectorIm8mreallocImEE12emplace_backIJcEEEvDpOT_
	.p2align	4, 0x90
	.type	_ZN6vectorIm8mreallocImEE12emplace_backIJcEEEvDpOT_,@function
_ZN6vectorIm8mreallocImEE12emplace_backIJcEEEvDpOT_: # @_ZN6vectorIm8mreallocImEE12emplace_backIJcEEEvDpOT_
.Lfunc_begin32:
	.loc	2 169 0                 # main.cc:169:0
	.cfi_startproc
# %bb.0:
	pushq	%rbp
	.cfi_def_cfa_offset 16
	.cfi_offset %rbp, -16
	movq	%rsp, %rbp
	.cfi_def_cfa_register %rbp
	subq	$48, %rsp
	movq	%rdi, -8(%rbp)
	movq	%rsi, -16(%rbp)
	movq	-8(%rbp), %rsi
.Ltmp284:
	.loc	2 170 17 prologue_end   # main.cc:170:17
	movq	8(%rsi), %rdi
	.loc	2 170 22 is_stmt 0      # main.cc:170:22
	cmpq	16(%rsi), %rdi
.Ltmp285:
	.loc	2 170 17                # main.cc:170:17
	movq	%rsi, -24(%rbp)         # 8-byte Spill
	jne	.LBB32_2
# %bb.1:
.Ltmp286:
	.loc	2 171 17 is_stmt 1      # main.cc:171:17
	movq	-24(%rbp), %rdi         # 8-byte Reload
	callq	_ZN6vectorIm8mreallocImEE15double_the_sizeEv
.Ltmp287:
.LBB32_2:
	.loc	2 172 37                # main.cc:172:37
	movq	-24(%rbp), %rax         # 8-byte Reload
	.loc	2 172 45 is_stmt 0      # main.cc:172:45
	movq	-24(%rbp), %rcx         # 8-byte Reload
	movq	(%rcx), %rdx
	.loc	2 172 53                # main.cc:172:53
	movq	8(%rcx), %rsi
	movq	%rsi, %rdi
	addq	$1, %rdi
	movq	%rdi, 8(%rcx)
	.loc	2 172 45                # main.cc:172:45
	shlq	$3, %rsi
	addq	%rsi, %rdx
	.loc	2 172 77                # main.cc:172:77
	movq	-16(%rbp), %rdi
	.loc	2 172 58                # main.cc:172:58
	movq	%rax, -32(%rbp)         # 8-byte Spill
	movq	%rdx, -40(%rbp)         # 8-byte Spill
	callq	_ZSt7forwardIcEOT_RNSt16remove_referenceIS0_E4typeE
	.loc	2 172 13                # main.cc:172:13
	movq	-32(%rbp), %rdi         # 8-byte Reload
	movq	-40(%rbp), %rsi         # 8-byte Reload
	movq	%rax, %rdx
	callq	_ZNSt16allocator_traitsI8mreallocImEE9constructImJcEEEDTcl12_S_constructfp_fp0_spclsr3stdE7forwardIT0_Efp1_EEERS1_PT_DpOS4_
	.loc	2 173 9 is_stmt 1       # main.cc:173:9
	addq	$48, %rsp
	popq	%rbp
	retq
.Ltmp288:
.Lfunc_end32:
	.size	_ZN6vectorIm8mreallocImEE12emplace_backIJcEEEvDpOT_, .Lfunc_end32-_ZN6vectorIm8mreallocImEE12emplace_backIJcEEEvDpOT_
	.cfi_endproc
                                        # -- End function
	.section	.text._ZN6vectorIm8mreallocImEED2Ev,"axG",@progbits,_ZN6vectorIm8mreallocImEED2Ev,comdat
	.weak	_ZN6vectorIm8mreallocImEED2Ev # -- Begin function _ZN6vectorIm8mreallocImEED2Ev
	.p2align	4, 0x90
	.type	_ZN6vectorIm8mreallocImEED2Ev,@function
_ZN6vectorIm8mreallocImEED2Ev:          # @_ZN6vectorIm8mreallocImEED2Ev
.Lfunc_begin33:
	.loc	2 164 0                 # main.cc:164:0
	.cfi_startproc
	.cfi_personality 3, __gxx_personality_v0
	.cfi_lsda 3, .Lexception9
# %bb.0:
	pushq	%rbp
	.cfi_def_cfa_offset 16
	.cfi_offset %rbp, -16
	movq	%rsp, %rbp
	.cfi_def_cfa_register %rbp
	subq	$16, %rsp
	movq	%rdi, -8(%rbp)
	movq	-8(%rbp), %rdi
.Ltmp292:
	.loc	2 165 45 prologue_end   # main.cc:165:45
	movq	(%rdi), %rsi
	.loc	2 165 50 is_stmt 0      # main.cc:165:50
	movq	16(%rdi), %rdx
.Ltmp289:
	.loc	2 165 13                # main.cc:165:13
	callq	_ZNSt16allocator_traitsI8mreallocImEE10deallocateERS1_Pmm
.Ltmp290:
	jmp	.LBB33_1
.Ltmp293:
.LBB33_1:
	.loc	2 166 9 is_stmt 1       # main.cc:166:9
	addq	$16, %rsp
	popq	%rbp
	retq
.LBB33_2:
.Ltmp291:
.Ltmp294:
	.loc	2 165 13                # main.cc:165:13
	movl	%edx, %ecx
	movq	%rax, %rdi
	movl	%ecx, -12(%rbp)         # 4-byte Spill
	callq	__clang_call_terminate
.Ltmp295:
.Lfunc_end33:
	.size	_ZN6vectorIm8mreallocImEED2Ev, .Lfunc_end33-_ZN6vectorIm8mreallocImEED2Ev
	.cfi_endproc
	.section	.gcc_except_table,"a",@progbits
	.p2align	2
GCC_except_table33:
.Lexception9:
	.byte	255                     # @LPStart Encoding = omit
	.byte	3                       # @TType Encoding = udata4
	.byte	21                      # @TType base offset
	.byte	3                       # Call site Encoding = udata4
	.byte	13                      # Call site table length
	.long	.Ltmp289-.Lfunc_begin33 # >> Call Site 1 <<
	.long	.Ltmp290-.Ltmp289       #   Call between .Ltmp289 and .Ltmp290
	.long	.Ltmp291-.Lfunc_begin33 #     jumps to .Ltmp291
	.byte	1                       #   On action: 1
	.byte	1                       # >> Action Record 1 <<
                                        #   Catch TypeInfo 1
	.byte	0                       #   No further actions
                                        # >> Catch TypeInfos <<
	.long	0                       # TypeInfo 1
	.p2align	2
                                        # -- End function
	.section	.text._ZN6vectorIm8mreallocImEE15double_the_sizeEv,"axG",@progbits,_ZN6vectorIm8mreallocImEE15double_the_sizeEv,comdat
	.weak	_ZN6vectorIm8mreallocImEE15double_the_sizeEv # -- Begin function _ZN6vectorIm8mreallocImEE15double_the_sizeEv
	.p2align	4, 0x90
	.type	_ZN6vectorIm8mreallocImEE15double_the_sizeEv,@function
_ZN6vectorIm8mreallocImEE15double_the_sizeEv: # @_ZN6vectorIm8mreallocImEE15double_the_sizeEv
.Lfunc_begin34:
	.loc	2 174 0                 # main.cc:174:0
	.cfi_startproc
# %bb.0:
	pushq	%rbp
	.cfi_def_cfa_offset 16
	.cfi_offset %rbp, -16
	movq	%rsp, %rbp
	.cfi_def_cfa_register %rbp
	subq	$16, %rsp
	movq	%rdi, -8(%rbp)
	movq	-8(%rbp), %rdi
.Ltmp296:
	.loc	2 175 36 prologue_end   # main.cc:175:36
	cmpq	$0, 16(%rdi)
	setne	%al
	.loc	2 175 35 is_stmt 0      # main.cc:175:35
	xorb	$-1, %al
	.loc	2 175 34                # main.cc:175:34
	xorb	$-1, %al
.Ltmp297:
	.loc	2 175 17                # main.cc:175:17
	testb	$1, %al
	movq	%rdi, -16(%rbp)         # 8-byte Spill
	jne	.LBB34_1
	jmp	.LBB34_2
.LBB34_1:
.Ltmp298:
	.loc	2 176 23 is_stmt 1      # main.cc:176:23
	movq	-16(%rbp), %rax         # 8-byte Reload
	movq	16(%rax), %rcx
	shlq	$1, %rcx
	movq	%rcx, 16(%rax)
	.loc	2 177 55                # main.cc:177:55
	movq	-16(%rbp), %rcx         # 8-byte Reload
	movq	(%rcx), %rsi
	.loc	2 177 60 is_stmt 0      # main.cc:177:60
	movq	8(%rcx), %rdx
	.loc	2 177 66                # main.cc:177:66
	movq	16(%rcx), %rcx
	.loc	2 177 23                # main.cc:177:23
	movq	%rax, %rdi
	callq	_ZN16allocator_traitsI8mreallocImEE10reallocateERS1_Pmmm
	.loc	2 177 21                # main.cc:177:21
	movq	-16(%rbp), %rcx         # 8-byte Reload
	movq	%rax, (%rcx)
	.loc	2 178 13 is_stmt 1      # main.cc:178:13
	jmp	.LBB34_3
.Ltmp299:
.LBB34_2:
	.loc	2 179 23                # main.cc:179:23
	movq	-16(%rbp), %rax         # 8-byte Reload
	movq	$16, 16(%rax)
	.loc	2 180 53                # main.cc:180:53
	movq	-16(%rbp), %rcx         # 8-byte Reload
	movq	16(%rcx), %rsi
	.loc	2 180 23 is_stmt 0      # main.cc:180:23
	movq	%rax, %rdi
	callq	_ZNSt16allocator_traitsI8mreallocImEE8allocateERS1_m
	.loc	2 180 21                # main.cc:180:21
	movq	-16(%rbp), %rcx         # 8-byte Reload
	movq	%rax, (%rcx)
.Ltmp300:
.LBB34_3:
	.loc	2 182 9 is_stmt 1       # main.cc:182:9
	addq	$16, %rsp
	popq	%rbp
	retq
.Ltmp301:
.Lfunc_end34:
	.size	_ZN6vectorIm8mreallocImEE15double_the_sizeEv, .Lfunc_end34-_ZN6vectorIm8mreallocImEE15double_the_sizeEv
	.cfi_endproc
                                        # -- End function
	.section	.text._ZNSt16allocator_traitsI8mreallocImEE9constructImJcEEEDTcl12_S_constructfp_fp0_spclsr3stdE7forwardIT0_Efp1_EEERS1_PT_DpOS4_,"axG",@progbits,_ZNSt16allocator_traitsI8mreallocImEE9constructImJcEEEDTcl12_S_constructfp_fp0_spclsr3stdE7forwardIT0_Efp1_EEERS1_PT_DpOS4_,comdat
	.weak	_ZNSt16allocator_traitsI8mreallocImEE9constructImJcEEEDTcl12_S_constructfp_fp0_spclsr3stdE7forwardIT0_Efp1_EEERS1_PT_DpOS4_ # -- Begin function _ZNSt16allocator_traitsI8mreallocImEE9constructImJcEEEDTcl12_S_constructfp_fp0_spclsr3stdE7forwardIT0_Efp1_EEERS1_PT_DpOS4_
	.p2align	4, 0x90
	.type	_ZNSt16allocator_traitsI8mreallocImEE9constructImJcEEEDTcl12_S_constructfp_fp0_spclsr3stdE7forwardIT0_Efp1_EEERS1_PT_DpOS4_,@function
_ZNSt16allocator_traitsI8mreallocImEE9constructImJcEEEDTcl12_S_constructfp_fp0_spclsr3stdE7forwardIT0_Efp1_EEERS1_PT_DpOS4_: # @_ZNSt16allocator_traitsI8mreallocImEE9constructImJcEEEDTcl12_S_constructfp_fp0_spclsr3stdE7forwardIT0_Efp1_EEERS1_PT_DpOS4_
.Lfunc_begin35:
	.loc	6 344 0                 # /usr/lib/gcc/x86_64-linux-gnu/6.3.0/../../../../include/c++/6.3.0/bits/alloc_traits.h:344:0
	.cfi_startproc
# %bb.0:
	pushq	%rbp
	.cfi_def_cfa_offset 16
	.cfi_offset %rbp, -16
	movq	%rsp, %rbp
	.cfi_def_cfa_register %rbp
	subq	$48, %rsp
	movq	%rdi, -8(%rbp)
	movq	%rsi, -16(%rbp)
	movq	%rdx, -24(%rbp)
.Ltmp302:
	.loc	6 344 17 prologue_end   # /usr/lib/gcc/x86_64-linux-gnu/6.3.0/../../../../include/c++/6.3.0/bits/alloc_traits.h:344:17
	movq	-8(%rbp), %rdi
	.loc	6 344 22 is_stmt 0      # /usr/lib/gcc/x86_64-linux-gnu/6.3.0/../../../../include/c++/6.3.0/bits/alloc_traits.h:344:22
	movq	-16(%rbp), %rsi
	.loc	6 344 47                # /usr/lib/gcc/x86_64-linux-gnu/6.3.0/../../../../include/c++/6.3.0/bits/alloc_traits.h:344:47
	movq	-24(%rbp), %rdx
	.loc	6 344 27                # /usr/lib/gcc/x86_64-linux-gnu/6.3.0/../../../../include/c++/6.3.0/bits/alloc_traits.h:344:27
	movq	%rdi, -32(%rbp)         # 8-byte Spill
	movq	%rdx, %rdi
	movq	%rsi, -40(%rbp)         # 8-byte Spill
	callq	_ZSt7forwardIcEOT_RNSt16remove_referenceIS0_E4typeE
	.loc	6 344 4                 # /usr/lib/gcc/x86_64-linux-gnu/6.3.0/../../../../include/c++/6.3.0/bits/alloc_traits.h:344:4
	movq	-32(%rbp), %rdi         # 8-byte Reload
	movq	-40(%rbp), %rsi         # 8-byte Reload
	movq	%rax, %rdx
	callq	_ZNSt16allocator_traitsI8mreallocImEE12_S_constructImJcEEENSt9enable_ifIXsr6__and_ISt6__and_IJSt6__not_INS2_18__construct_helperIT_JDpT0_EE4typeEESt16is_constructibleIS8_JSA_EEEEEE5valueEvE4typeERS1_PS8_DpOS9_
	.loc	6 344 60                # /usr/lib/gcc/x86_64-linux-gnu/6.3.0/../../../../include/c++/6.3.0/bits/alloc_traits.h:344:60
	addq	$48, %rsp
	popq	%rbp
	retq
.Ltmp303:
.Lfunc_end35:
	.size	_ZNSt16allocator_traitsI8mreallocImEE9constructImJcEEEDTcl12_S_constructfp_fp0_spclsr3stdE7forwardIT0_Efp1_EEERS1_PT_DpOS4_, .Lfunc_end35-_ZNSt16allocator_traitsI8mreallocImEE9constructImJcEEEDTcl12_S_constructfp_fp0_spclsr3stdE7forwardIT0_Efp1_EEERS1_PT_DpOS4_
	.cfi_endproc
                                        # -- End function
	.section	.text._ZN16allocator_traitsI8mreallocImEE10reallocateERS1_Pmmm,"axG",@progbits,_ZN16allocator_traitsI8mreallocImEE10reallocateERS1_Pmmm,comdat
	.weak	_ZN16allocator_traitsI8mreallocImEE10reallocateERS1_Pmmm # -- Begin function _ZN16allocator_traitsI8mreallocImEE10reallocateERS1_Pmmm
	.p2align	4, 0x90
	.type	_ZN16allocator_traitsI8mreallocImEE10reallocateERS1_Pmmm,@function
_ZN16allocator_traitsI8mreallocImEE10reallocateERS1_Pmmm: # @_ZN16allocator_traitsI8mreallocImEE10reallocateERS1_Pmmm
.Lfunc_begin36:
	.loc	2 137 0 is_stmt 1       # main.cc:137:0
	.cfi_startproc
# %bb.0:
	pushq	%rbp
	.cfi_def_cfa_offset 16
	.cfi_offset %rbp, -16
	movq	%rsp, %rbp
	.cfi_def_cfa_register %rbp
	subq	$32, %rsp
	movq	%rdi, -8(%rbp)
	movq	%rsi, -16(%rbp)
	movq	%rdx, -24(%rbp)
	movq	%rcx, -32(%rbp)
.Ltmp304:
	.loc	2 139 24 prologue_end   # main.cc:139:24
	movq	-8(%rbp), %rdi
	.loc	2 139 41 is_stmt 0      # main.cc:139:41
	movq	-16(%rbp), %rsi
	.loc	2 139 51                # main.cc:139:51
	movq	-24(%rbp), %rdx
	.loc	2 139 61                # main.cc:139:61
	movq	-32(%rbp), %rcx
	.loc	2 139 30                # main.cc:139:30
	callq	_ZN8mreallocImE10reallocateEPmmm
	.loc	2 139 17                # main.cc:139:17
	addq	$32, %rsp
	popq	%rbp
	retq
.Ltmp305:
.Lfunc_end36:
	.size	_ZN16allocator_traitsI8mreallocImEE10reallocateERS1_Pmmm, .Lfunc_end36-_ZN16allocator_traitsI8mreallocImEE10reallocateERS1_Pmmm
	.cfi_endproc
                                        # -- End function
	.section	.text._ZNSt16allocator_traitsI8mreallocImEE8allocateERS1_m,"axG",@progbits,_ZNSt16allocator_traitsI8mreallocImEE8allocateERS1_m,comdat
	.weak	_ZNSt16allocator_traitsI8mreallocImEE8allocateERS1_m # -- Begin function _ZNSt16allocator_traitsI8mreallocImEE8allocateERS1_m
	.p2align	4, 0x90
	.type	_ZNSt16allocator_traitsI8mreallocImEE8allocateERS1_m,@function
_ZNSt16allocator_traitsI8mreallocImEE8allocateERS1_m: # @_ZNSt16allocator_traitsI8mreallocImEE8allocateERS1_m
.Lfunc_begin37:
	.loc	6 301 0 is_stmt 1       # /usr/lib/gcc/x86_64-linux-gnu/6.3.0/../../../../include/c++/6.3.0/bits/alloc_traits.h:301:0
	.cfi_startproc
# %bb.0:
	pushq	%rbp
	.cfi_def_cfa_offset 16
	.cfi_offset %rbp, -16
	movq	%rsp, %rbp
	.cfi_def_cfa_register %rbp
	subq	$16, %rsp
	movq	%rdi, -8(%rbp)
	movq	%rsi, -16(%rbp)
.Ltmp306:
	.loc	6 301 16 prologue_end   # /usr/lib/gcc/x86_64-linux-gnu/6.3.0/../../../../include/c++/6.3.0/bits/alloc_traits.h:301:16
	movq	-8(%rbp), %rdi
	.loc	6 301 29 is_stmt 0      # /usr/lib/gcc/x86_64-linux-gnu/6.3.0/../../../../include/c++/6.3.0/bits/alloc_traits.h:301:29
	movq	-16(%rbp), %rsi
	.loc	6 301 20                # /usr/lib/gcc/x86_64-linux-gnu/6.3.0/../../../../include/c++/6.3.0/bits/alloc_traits.h:301:20
	callq	_ZN8mreallocImE8allocateEm
	.loc	6 301 9                 # /usr/lib/gcc/x86_64-linux-gnu/6.3.0/../../../../include/c++/6.3.0/bits/alloc_traits.h:301:9
	addq	$16, %rsp
	popq	%rbp
	retq
.Ltmp307:
.Lfunc_end37:
	.size	_ZNSt16allocator_traitsI8mreallocImEE8allocateERS1_m, .Lfunc_end37-_ZNSt16allocator_traitsI8mreallocImEE8allocateERS1_m
	.cfi_endproc
                                        # -- End function
	.section	.text._ZN8mreallocImE10reallocateEPmmm,"axG",@progbits,_ZN8mreallocImE10reallocateEPmmm,comdat
	.weak	_ZN8mreallocImE10reallocateEPmmm # -- Begin function _ZN8mreallocImE10reallocateEPmmm
	.p2align	4, 0x90
	.type	_ZN8mreallocImE10reallocateEPmmm,@function
_ZN8mreallocImE10reallocateEPmmm:       # @_ZN8mreallocImE10reallocateEPmmm
.Lfunc_begin38:
	.loc	2 41 0 is_stmt 1        # main.cc:41:0
	.cfi_startproc
# %bb.0:
	pushq	%rbp
	.cfi_def_cfa_offset 16
	.cfi_offset %rbp, -16
	movq	%rsp, %rbp
	.cfi_def_cfa_register %rbp
	subq	$64, %rsp
	movq	%rdi, -8(%rbp)
	movq	%rsi, -16(%rbp)
	movq	%rdx, -24(%rbp)
	movq	%rcx, -32(%rbp)
.Ltmp308:
	.loc	2 42 41 prologue_end    # main.cc:42:41
	movq	-16(%rbp), %rcx
	.loc	2 42 50 is_stmt 0       # main.cc:42:50
	movq	-32(%rbp), %rsi
	.loc	2 42 28                 # main.cc:42:28
	movq	%rcx, %rdi
	callq	realloc
	.loc	2 42 22                 # main.cc:42:22
	movq	%rax, -40(%rbp)
	cmpq	$0, -40(%rbp)
.Ltmp309:
	.loc	2 42 22                 # main.cc:42:22
	je	.LBB38_2
# %bb.1:
.Ltmp310:
	.loc	2 43 45 is_stmt 1       # main.cc:43:45
	movq	-40(%rbp), %rax
	.loc	2 43 17 is_stmt 0       # main.cc:43:17
	addq	$64, %rsp
	popq	%rbp
	retq
.LBB38_2:
	.loc	2 0 17                  # main.cc:0:17
	movl	$8, %eax
	movl	%eax, %edi
	.loc	2 45 17 is_stmt 1       # main.cc:45:17
	callq	__cxa_allocate_exception
	movq	%rax, %rdi
	.loc	2 45 23 is_stmt 0       # main.cc:45:23
	movq	%rax, -48(%rbp)         # 8-byte Spill
	callq	_ZNSt9bad_allocC2Ev
	movabsq	$_ZTISt9bad_alloc, %rax
	movabsq	$_ZNSt9bad_allocD1Ev, %rdi
	.loc	2 45 17                 # main.cc:45:17
	movq	-48(%rbp), %rcx         # 8-byte Reload
	movq	%rdi, -56(%rbp)         # 8-byte Spill
	movq	%rcx, %rdi
	movq	%rax, %rsi
	movq	-56(%rbp), %rdx         # 8-byte Reload
	callq	__cxa_throw
.Ltmp311:
.Lfunc_end38:
	.size	_ZN8mreallocImE10reallocateEPmmm, .Lfunc_end38-_ZN8mreallocImE10reallocateEPmmm
	.cfi_endproc
                                        # -- End function
	.section	.text._ZNSt9bad_allocC2Ev,"axG",@progbits,_ZNSt9bad_allocC2Ev,comdat
	.weak	_ZNSt9bad_allocC2Ev     # -- Begin function _ZNSt9bad_allocC2Ev
	.p2align	4, 0x90
	.type	_ZNSt9bad_allocC2Ev,@function
_ZNSt9bad_allocC2Ev:                    # @_ZNSt9bad_allocC2Ev
.Lfunc_begin39:
	.loc	37 57 0 is_stmt 1       # /usr/lib/gcc/x86_64-linux-gnu/6.3.0/../../../../include/c++/6.3.0/new:57:0
	.cfi_startproc
# %bb.0:
	pushq	%rbp
	.cfi_def_cfa_offset 16
	.cfi_offset %rbp, -16
	movq	%rsp, %rbp
	.cfi_def_cfa_register %rbp
	subq	$16, %rsp
	movq	%rdi, -8(%rbp)
	movq	-8(%rbp), %rdi
.Ltmp312:
	.loc	37 57 25 prologue_end   # /usr/lib/gcc/x86_64-linux-gnu/6.3.0/../../../../include/c++/6.3.0/new:57:25
	movq	%rdi, %rax
	.loc	37 57 5 is_stmt 0       # /usr/lib/gcc/x86_64-linux-gnu/6.3.0/../../../../include/c++/6.3.0/new:57:5
	movq	%rdi, -16(%rbp)         # 8-byte Spill
	movq	%rax, %rdi
	callq	_ZNSt9exceptionC2Ev
	movabsq	$_ZTVSt9bad_alloc, %rax
	addq	$16, %rax
	.loc	37 57 25                # /usr/lib/gcc/x86_64-linux-gnu/6.3.0/../../../../include/c++/6.3.0/new:57:25
	movq	-16(%rbp), %rdi         # 8-byte Reload
	movq	%rax, (%rdi)
	.loc	37 57 27                # /usr/lib/gcc/x86_64-linux-gnu/6.3.0/../../../../include/c++/6.3.0/new:57:27
	addq	$16, %rsp
	popq	%rbp
	retq
.Ltmp313:
.Lfunc_end39:
	.size	_ZNSt9bad_allocC2Ev, .Lfunc_end39-_ZNSt9bad_allocC2Ev
	.cfi_endproc
                                        # -- End function
	.section	.text._ZNSt9exceptionC2Ev,"axG",@progbits,_ZNSt9exceptionC2Ev,comdat
	.weak	_ZNSt9exceptionC2Ev     # -- Begin function _ZNSt9exceptionC2Ev
	.p2align	4, 0x90
	.type	_ZNSt9exceptionC2Ev,@function
_ZNSt9exceptionC2Ev:                    # @_ZNSt9exceptionC2Ev
.Lfunc_begin40:
	.loc	39 65 0 is_stmt 1       # /usr/lib/gcc/x86_64-linux-gnu/6.3.0/../../../../include/c++/6.3.0/exception:65:0
	.cfi_startproc
# %bb.0:
	pushq	%rbp
	.cfi_def_cfa_offset 16
	.cfi_offset %rbp, -16
	movq	%rsp, %rbp
	.cfi_def_cfa_register %rbp
	movabsq	$_ZTVSt9exception, %rax
	addq	$16, %rax
	movq	%rdi, -8(%rbp)
	movq	-8(%rbp), %rdi
.Ltmp314:
	.loc	39 65 39 prologue_end   # /usr/lib/gcc/x86_64-linux-gnu/6.3.0/../../../../include/c++/6.3.0/exception:65:39
	movq	%rax, (%rdi)
	.loc	39 65 41 is_stmt 0      # /usr/lib/gcc/x86_64-linux-gnu/6.3.0/../../../../include/c++/6.3.0/exception:65:41
	popq	%rbp
	retq
.Ltmp315:
.Lfunc_end40:
	.size	_ZNSt9exceptionC2Ev, .Lfunc_end40-_ZNSt9exceptionC2Ev
	.cfi_endproc
                                        # -- End function
	.section	.text._ZN8mreallocImE8allocateEm,"axG",@progbits,_ZN8mreallocImE8allocateEm,comdat
	.weak	_ZN8mreallocImE8allocateEm # -- Begin function _ZN8mreallocImE8allocateEm
	.p2align	4, 0x90
	.type	_ZN8mreallocImE8allocateEm,@function
_ZN8mreallocImE8allocateEm:             # @_ZN8mreallocImE8allocateEm
.Lfunc_begin41:
	.loc	2 35 0 is_stmt 1        # main.cc:35:0
	.cfi_startproc
# %bb.0:
	pushq	%rbp
	.cfi_def_cfa_offset 16
	.cfi_offset %rbp, -16
	movq	%rsp, %rbp
	.cfi_def_cfa_register %rbp
	subq	$48, %rsp
	movq	%rdi, -8(%rbp)
	movq	%rsi, -16(%rbp)
.Ltmp316:
	.loc	2 36 40 prologue_end    # main.cc:36:40
	movq	-16(%rbp), %rdi
	.loc	2 36 28 is_stmt 0       # main.cc:36:28
	callq	malloc
	.loc	2 36 22                 # main.cc:36:22
	movq	%rax, -24(%rbp)
	cmpq	$0, -24(%rbp)
.Ltmp317:
	.loc	2 36 22                 # main.cc:36:22
	je	.LBB41_2
# %bb.1:
.Ltmp318:
	.loc	2 37 45 is_stmt 1       # main.cc:37:45
	movq	-24(%rbp), %rax
	.loc	2 37 17 is_stmt 0       # main.cc:37:17
	addq	$48, %rsp
	popq	%rbp
	retq
.LBB41_2:
	.loc	2 0 17                  # main.cc:0:17
	movl	$8, %eax
	movl	%eax, %edi
	.loc	2 39 17 is_stmt 1       # main.cc:39:17
	callq	__cxa_allocate_exception
	movq	%rax, %rdi
	.loc	2 39 23 is_stmt 0       # main.cc:39:23
	movq	%rax, -32(%rbp)         # 8-byte Spill
	callq	_ZNSt9bad_allocC2Ev
	movabsq	$_ZTISt9bad_alloc, %rax
	movabsq	$_ZNSt9bad_allocD1Ev, %rdi
	.loc	2 39 17                 # main.cc:39:17
	movq	-32(%rbp), %rcx         # 8-byte Reload
	movq	%rdi, -40(%rbp)         # 8-byte Spill
	movq	%rcx, %rdi
	movq	%rax, %rsi
	movq	-40(%rbp), %rdx         # 8-byte Reload
	callq	__cxa_throw
.Ltmp319:
.Lfunc_end41:
	.size	_ZN8mreallocImE8allocateEm, .Lfunc_end41-_ZN8mreallocImE8allocateEm
	.cfi_endproc
                                        # -- End function
	.section	.text._ZNSt16allocator_traitsI8mreallocImEE12_S_constructImJcEEENSt9enable_ifIXsr6__and_ISt6__and_IJSt6__not_INS2_18__construct_helperIT_JDpT0_EE4typeEESt16is_constructibleIS8_JSA_EEEEEE5valueEvE4typeERS1_PS8_DpOS9_,"axG",@progbits,_ZNSt16allocator_traitsI8mreallocImEE12_S_constructImJcEEENSt9enable_ifIXsr6__and_ISt6__and_IJSt6__not_INS2_18__construct_helperIT_JDpT0_EE4typeEESt16is_constructibleIS8_JSA_EEEEEE5valueEvE4typeERS1_PS8_DpOS9_,comdat
	.weak	_ZNSt16allocator_traitsI8mreallocImEE12_S_constructImJcEEENSt9enable_ifIXsr6__and_ISt6__and_IJSt6__not_INS2_18__construct_helperIT_JDpT0_EE4typeEESt16is_constructibleIS8_JSA_EEEEEE5valueEvE4typeERS1_PS8_DpOS9_ # -- Begin function _ZNSt16allocator_traitsI8mreallocImEE12_S_constructImJcEEENSt9enable_ifIXsr6__and_ISt6__and_IJSt6__not_INS2_18__construct_helperIT_JDpT0_EE4typeEESt16is_constructibleIS8_JSA_EEEEEE5valueEvE4typeERS1_PS8_DpOS9_
	.p2align	4, 0x90
	.type	_ZNSt16allocator_traitsI8mreallocImEE12_S_constructImJcEEENSt9enable_ifIXsr6__and_ISt6__and_IJSt6__not_INS2_18__construct_helperIT_JDpT0_EE4typeEESt16is_constructibleIS8_JSA_EEEEEE5valueEvE4typeERS1_PS8_DpOS9_,@function
_ZNSt16allocator_traitsI8mreallocImEE12_S_constructImJcEEENSt9enable_ifIXsr6__and_ISt6__and_IJSt6__not_INS2_18__construct_helperIT_JDpT0_EE4typeEESt16is_constructibleIS8_JSA_EEEEEE5valueEvE4typeERS1_PS8_DpOS9_: # @_ZNSt16allocator_traitsI8mreallocImEE12_S_constructImJcEEENSt9enable_ifIXsr6__and_ISt6__and_IJSt6__not_INS2_18__construct_helperIT_JDpT0_EE4typeEESt16is_constructibleIS8_JSA_EEEEEE5valueEvE4typeERS1_PS8_DpOS9_
.Lfunc_begin42:
	.loc	6 250 0 is_stmt 1       # /usr/lib/gcc/x86_64-linux-gnu/6.3.0/../../../../include/c++/6.3.0/bits/alloc_traits.h:250:0
	.cfi_startproc
# %bb.0:
	pushq	%rbp
	.cfi_def_cfa_offset 16
	.cfi_offset %rbp, -16
	movq	%rsp, %rbp
	.cfi_def_cfa_register %rbp
	subq	$32, %rsp
	movq	%rdi, -8(%rbp)
	movq	%rsi, -16(%rbp)
	movq	%rdx, -24(%rbp)
.Ltmp320:
	.loc	6 250 17 prologue_end   # /usr/lib/gcc/x86_64-linux-gnu/6.3.0/../../../../include/c++/6.3.0/bits/alloc_traits.h:250:17
	movq	-16(%rbp), %rdx
	.loc	6 250 46 is_stmt 0      # /usr/lib/gcc/x86_64-linux-gnu/6.3.0/../../../../include/c++/6.3.0/bits/alloc_traits.h:250:46
	movq	-24(%rbp), %rdi
	.loc	6 250 26                # /usr/lib/gcc/x86_64-linux-gnu/6.3.0/../../../../include/c++/6.3.0/bits/alloc_traits.h:250:26
	movq	%rdx, -32(%rbp)         # 8-byte Spill
	callq	_ZSt7forwardIcEOT_RNSt16remove_referenceIS0_E4typeE
	movsbq	(%rax), %rax
	.loc	6 250 4                 # /usr/lib/gcc/x86_64-linux-gnu/6.3.0/../../../../include/c++/6.3.0/bits/alloc_traits.h:250:4
	movq	-32(%rbp), %rdx         # 8-byte Reload
	movq	%rax, (%rdx)
	.loc	6 250 59                # /usr/lib/gcc/x86_64-linux-gnu/6.3.0/../../../../include/c++/6.3.0/bits/alloc_traits.h:250:59
	addq	$32, %rsp
	popq	%rbp
	retq
.Ltmp321:
.Lfunc_end42:
	.size	_ZNSt16allocator_traitsI8mreallocImEE12_S_constructImJcEEENSt9enable_ifIXsr6__and_ISt6__and_IJSt6__not_INS2_18__construct_helperIT_JDpT0_EE4typeEESt16is_constructibleIS8_JSA_EEEEEE5valueEvE4typeERS1_PS8_DpOS9_, .Lfunc_end42-_ZNSt16allocator_traitsI8mreallocImEE12_S_constructImJcEEENSt9enable_ifIXsr6__and_ISt6__and_IJSt6__not_INS2_18__construct_helperIT_JDpT0_EE4typeEESt16is_constructibleIS8_JSA_EEEEEE5valueEvE4typeERS1_PS8_DpOS9_
	.cfi_endproc
                                        # -- End function
	.section	.text._ZNSt16allocator_traitsI8mreallocImEE10deallocateERS1_Pmm,"axG",@progbits,_ZNSt16allocator_traitsI8mreallocImEE10deallocateERS1_Pmm,comdat
	.weak	_ZNSt16allocator_traitsI8mreallocImEE10deallocateERS1_Pmm # -- Begin function _ZNSt16allocator_traitsI8mreallocImEE10deallocateERS1_Pmm
	.p2align	4, 0x90
	.type	_ZNSt16allocator_traitsI8mreallocImEE10deallocateERS1_Pmm,@function
_ZNSt16allocator_traitsI8mreallocImEE10deallocateERS1_Pmm: # @_ZNSt16allocator_traitsI8mreallocImEE10deallocateERS1_Pmm
.Lfunc_begin43:
	.loc	6 328 0 is_stmt 1       # /usr/lib/gcc/x86_64-linux-gnu/6.3.0/../../../../include/c++/6.3.0/bits/alloc_traits.h:328:0
	.cfi_startproc
# %bb.0:
	pushq	%rbp
	.cfi_def_cfa_offset 16
	.cfi_offset %rbp, -16
	movq	%rsp, %rbp
	.cfi_def_cfa_register %rbp
	subq	$32, %rsp
	movq	%rdi, -8(%rbp)
	movq	%rsi, -16(%rbp)
	movq	%rdx, -24(%rbp)
.Ltmp322:
	.loc	6 328 9 prologue_end    # /usr/lib/gcc/x86_64-linux-gnu/6.3.0/../../../../include/c++/6.3.0/bits/alloc_traits.h:328:9
	movq	-8(%rbp), %rdi
	.loc	6 328 24 is_stmt 0      # /usr/lib/gcc/x86_64-linux-gnu/6.3.0/../../../../include/c++/6.3.0/bits/alloc_traits.h:328:24
	movq	-16(%rbp), %rdx
	.loc	6 328 29                # /usr/lib/gcc/x86_64-linux-gnu/6.3.0/../../../../include/c++/6.3.0/bits/alloc_traits.h:328:29
	movq	-24(%rbp), %rsi
	.loc	6 328 13                # /usr/lib/gcc/x86_64-linux-gnu/6.3.0/../../../../include/c++/6.3.0/bits/alloc_traits.h:328:13
	movq	%rsi, -32(%rbp)         # 8-byte Spill
	movq	%rdx, %rsi
	movq	-32(%rbp), %rdx         # 8-byte Reload
	callq	_ZN8mreallocImE10deallocateEPvm
	.loc	6 328 35                # /usr/lib/gcc/x86_64-linux-gnu/6.3.0/../../../../include/c++/6.3.0/bits/alloc_traits.h:328:35
	addq	$32, %rsp
	popq	%rbp
	retq
.Ltmp323:
.Lfunc_end43:
	.size	_ZNSt16allocator_traitsI8mreallocImEE10deallocateERS1_Pmm, .Lfunc_end43-_ZNSt16allocator_traitsI8mreallocImEE10deallocateERS1_Pmm
	.cfi_endproc
                                        # -- End function
	.section	.text._ZN8mreallocImE10deallocateEPvm,"axG",@progbits,_ZN8mreallocImE10deallocateEPvm,comdat
	.weak	_ZN8mreallocImE10deallocateEPvm # -- Begin function _ZN8mreallocImE10deallocateEPvm
	.p2align	4, 0x90
	.type	_ZN8mreallocImE10deallocateEPvm,@function
_ZN8mreallocImE10deallocateEPvm:        # @_ZN8mreallocImE10deallocateEPvm
.Lfunc_begin44:
	.loc	2 47 0 is_stmt 1        # main.cc:47:0
	.cfi_startproc
# %bb.0:
	pushq	%rbp
	.cfi_def_cfa_offset 16
	.cfi_offset %rbp, -16
	movq	%rsp, %rbp
	.cfi_def_cfa_register %rbp
	subq	$32, %rsp
	movq	%rdi, -8(%rbp)
	movq	%rsi, -16(%rbp)
	movq	%rdx, -24(%rbp)
.Ltmp324:
	.loc	2 48 23 prologue_end    # main.cc:48:23
	movq	-16(%rbp), %rdi
	.loc	2 48 13 is_stmt 0       # main.cc:48:13
	callq	free
	.loc	2 49 9 is_stmt 1        # main.cc:49:9
	addq	$32, %rsp
	popq	%rbp
	retq
.Ltmp325:
.Lfunc_end44:
	.size	_ZN8mreallocImE10deallocateEPvm, .Lfunc_end44-_ZN8mreallocImE10deallocateEPvm
	.cfi_endproc
                                        # -- End function
	.section	.text._ZN6vectorIm11mmapreallocImEEC2Ev,"axG",@progbits,_ZN6vectorIm11mmapreallocImEEC2Ev,comdat
	.weak	_ZN6vectorIm11mmapreallocImEEC2Ev # -- Begin function _ZN6vectorIm11mmapreallocImEEC2Ev
	.p2align	4, 0x90
	.type	_ZN6vectorIm11mmapreallocImEEC2Ev,@function
_ZN6vectorIm11mmapreallocImEEC2Ev:      # @_ZN6vectorIm11mmapreallocImEEC2Ev
.Lfunc_begin45:
	.loc	2 156 0                 # main.cc:156:0
	.cfi_startproc
# %bb.0:
	pushq	%rbp
	.cfi_def_cfa_offset 16
	.cfi_offset %rbp, -16
	movq	%rsp, %rbp
	.cfi_def_cfa_register %rbp
	movq	%rdi, -8(%rbp)
	movq	-8(%rbp), %rdi
.Ltmp326:
	.loc	2 160 17 prologue_end   # main.cc:160:17
	movq	$0, (%rdi)
	.loc	2 161 16                # main.cc:161:16
	movq	$0, 8(%rdi)
	.loc	2 162 16                # main.cc:162:16
	movq	$0, 16(%rdi)
	.loc	2 156 12                # main.cc:156:12
	popq	%rbp
	retq
.Ltmp327:
.Lfunc_end45:
	.size	_ZN6vectorIm11mmapreallocImEEC2Ev, .Lfunc_end45-_ZN6vectorIm11mmapreallocImEEC2Ev
	.cfi_endproc
                                        # -- End function
	.section	.text._ZN6vectorIm11mmapreallocImEE12emplace_backIJcEEEvDpOT_,"axG",@progbits,_ZN6vectorIm11mmapreallocImEE12emplace_backIJcEEEvDpOT_,comdat
	.weak	_ZN6vectorIm11mmapreallocImEE12emplace_backIJcEEEvDpOT_ # -- Begin function _ZN6vectorIm11mmapreallocImEE12emplace_backIJcEEEvDpOT_
	.p2align	4, 0x90
	.type	_ZN6vectorIm11mmapreallocImEE12emplace_backIJcEEEvDpOT_,@function
_ZN6vectorIm11mmapreallocImEE12emplace_backIJcEEEvDpOT_: # @_ZN6vectorIm11mmapreallocImEE12emplace_backIJcEEEvDpOT_
.Lfunc_begin46:
	.loc	2 169 0                 # main.cc:169:0
	.cfi_startproc
# %bb.0:
	pushq	%rbp
	.cfi_def_cfa_offset 16
	.cfi_offset %rbp, -16
	movq	%rsp, %rbp
	.cfi_def_cfa_register %rbp
	subq	$48, %rsp
	movq	%rdi, -8(%rbp)
	movq	%rsi, -16(%rbp)
	movq	-8(%rbp), %rsi
.Ltmp328:
	.loc	2 170 17 prologue_end   # main.cc:170:17
	movq	8(%rsi), %rdi
	.loc	2 170 22 is_stmt 0      # main.cc:170:22
	cmpq	16(%rsi), %rdi
.Ltmp329:
	.loc	2 170 17                # main.cc:170:17
	movq	%rsi, -24(%rbp)         # 8-byte Spill
	jne	.LBB46_2
# %bb.1:
.Ltmp330:
	.loc	2 171 17 is_stmt 1      # main.cc:171:17
	movq	-24(%rbp), %rdi         # 8-byte Reload
	callq	_ZN6vectorIm11mmapreallocImEE15double_the_sizeEv
.Ltmp331:
.LBB46_2:
	.loc	2 172 37                # main.cc:172:37
	movq	-24(%rbp), %rax         # 8-byte Reload
	.loc	2 172 45 is_stmt 0      # main.cc:172:45
	movq	-24(%rbp), %rcx         # 8-byte Reload
	movq	(%rcx), %rdx
	.loc	2 172 53                # main.cc:172:53
	movq	8(%rcx), %rsi
	movq	%rsi, %rdi
	addq	$1, %rdi
	movq	%rdi, 8(%rcx)
	.loc	2 172 45                # main.cc:172:45
	shlq	$3, %rsi
	addq	%rsi, %rdx
	.loc	2 172 77                # main.cc:172:77
	movq	-16(%rbp), %rdi
	.loc	2 172 58                # main.cc:172:58
	movq	%rax, -32(%rbp)         # 8-byte Spill
	movq	%rdx, -40(%rbp)         # 8-byte Spill
	callq	_ZSt7forwardIcEOT_RNSt16remove_referenceIS0_E4typeE
	.loc	2 172 13                # main.cc:172:13
	movq	-32(%rbp), %rdi         # 8-byte Reload
	movq	-40(%rbp), %rsi         # 8-byte Reload
	movq	%rax, %rdx
	callq	_ZNSt16allocator_traitsI11mmapreallocImEE9constructImJcEEEDTcl12_S_constructfp_fp0_spclsr3stdE7forwardIT0_Efp1_EEERS1_PT_DpOS4_
	.loc	2 173 9 is_stmt 1       # main.cc:173:9
	addq	$48, %rsp
	popq	%rbp
	retq
.Ltmp332:
.Lfunc_end46:
	.size	_ZN6vectorIm11mmapreallocImEE12emplace_backIJcEEEvDpOT_, .Lfunc_end46-_ZN6vectorIm11mmapreallocImEE12emplace_backIJcEEEvDpOT_
	.cfi_endproc
                                        # -- End function
	.section	.text._ZN6vectorIm11mmapreallocImEED2Ev,"axG",@progbits,_ZN6vectorIm11mmapreallocImEED2Ev,comdat
	.weak	_ZN6vectorIm11mmapreallocImEED2Ev # -- Begin function _ZN6vectorIm11mmapreallocImEED2Ev
	.p2align	4, 0x90
	.type	_ZN6vectorIm11mmapreallocImEED2Ev,@function
_ZN6vectorIm11mmapreallocImEED2Ev:      # @_ZN6vectorIm11mmapreallocImEED2Ev
.Lfunc_begin47:
	.loc	2 164 0                 # main.cc:164:0
	.cfi_startproc
	.cfi_personality 3, __gxx_personality_v0
	.cfi_lsda 3, .Lexception10
# %bb.0:
	pushq	%rbp
	.cfi_def_cfa_offset 16
	.cfi_offset %rbp, -16
	movq	%rsp, %rbp
	.cfi_def_cfa_register %rbp
	subq	$16, %rsp
	movq	%rdi, -8(%rbp)
	movq	-8(%rbp), %rdi
.Ltmp336:
	.loc	2 165 45 prologue_end   # main.cc:165:45
	movq	(%rdi), %rsi
	.loc	2 165 50 is_stmt 0      # main.cc:165:50
	movq	16(%rdi), %rdx
.Ltmp333:
	.loc	2 165 13                # main.cc:165:13
	callq	_ZNSt16allocator_traitsI11mmapreallocImEE10deallocateERS1_Pmm
.Ltmp334:
	jmp	.LBB47_1
.Ltmp337:
.LBB47_1:
	.loc	2 166 9 is_stmt 1       # main.cc:166:9
	addq	$16, %rsp
	popq	%rbp
	retq
.LBB47_2:
.Ltmp335:
.Ltmp338:
	.loc	2 165 13                # main.cc:165:13
	movl	%edx, %ecx
	movq	%rax, %rdi
	movl	%ecx, -12(%rbp)         # 4-byte Spill
	callq	__clang_call_terminate
.Ltmp339:
.Lfunc_end47:
	.size	_ZN6vectorIm11mmapreallocImEED2Ev, .Lfunc_end47-_ZN6vectorIm11mmapreallocImEED2Ev
	.cfi_endproc
	.section	.gcc_except_table,"a",@progbits
	.p2align	2
GCC_except_table47:
.Lexception10:
	.byte	255                     # @LPStart Encoding = omit
	.byte	3                       # @TType Encoding = udata4
	.byte	21                      # @TType base offset
	.byte	3                       # Call site Encoding = udata4
	.byte	13                      # Call site table length
	.long	.Ltmp333-.Lfunc_begin47 # >> Call Site 1 <<
	.long	.Ltmp334-.Ltmp333       #   Call between .Ltmp333 and .Ltmp334
	.long	.Ltmp335-.Lfunc_begin47 #     jumps to .Ltmp335
	.byte	1                       #   On action: 1
	.byte	1                       # >> Action Record 1 <<
                                        #   Catch TypeInfo 1
	.byte	0                       #   No further actions
                                        # >> Catch TypeInfos <<
	.long	0                       # TypeInfo 1
	.p2align	2
                                        # -- End function
	.section	.text._ZN6vectorIm11mmapreallocImEE15double_the_sizeEv,"axG",@progbits,_ZN6vectorIm11mmapreallocImEE15double_the_sizeEv,comdat
	.weak	_ZN6vectorIm11mmapreallocImEE15double_the_sizeEv # -- Begin function _ZN6vectorIm11mmapreallocImEE15double_the_sizeEv
	.p2align	4, 0x90
	.type	_ZN6vectorIm11mmapreallocImEE15double_the_sizeEv,@function
_ZN6vectorIm11mmapreallocImEE15double_the_sizeEv: # @_ZN6vectorIm11mmapreallocImEE15double_the_sizeEv
.Lfunc_begin48:
	.loc	2 174 0                 # main.cc:174:0
	.cfi_startproc
# %bb.0:
	pushq	%rbp
	.cfi_def_cfa_offset 16
	.cfi_offset %rbp, -16
	movq	%rsp, %rbp
	.cfi_def_cfa_register %rbp
	subq	$16, %rsp
	movq	%rdi, -8(%rbp)
	movq	-8(%rbp), %rdi
.Ltmp340:
	.loc	2 175 36 prologue_end   # main.cc:175:36
	cmpq	$0, 16(%rdi)
	setne	%al
	.loc	2 175 35 is_stmt 0      # main.cc:175:35
	xorb	$-1, %al
	.loc	2 175 34                # main.cc:175:34
	xorb	$-1, %al
.Ltmp341:
	.loc	2 175 17                # main.cc:175:17
	testb	$1, %al
	movq	%rdi, -16(%rbp)         # 8-byte Spill
	jne	.LBB48_1
	jmp	.LBB48_2
.LBB48_1:
.Ltmp342:
	.loc	2 176 23 is_stmt 1      # main.cc:176:23
	movq	-16(%rbp), %rax         # 8-byte Reload
	movq	16(%rax), %rcx
	shlq	$1, %rcx
	movq	%rcx, 16(%rax)
	.loc	2 177 55                # main.cc:177:55
	movq	-16(%rbp), %rcx         # 8-byte Reload
	movq	(%rcx), %rsi
	.loc	2 177 60 is_stmt 0      # main.cc:177:60
	movq	8(%rcx), %rdx
	.loc	2 177 66                # main.cc:177:66
	movq	16(%rcx), %rcx
	.loc	2 177 23                # main.cc:177:23
	movq	%rax, %rdi
	callq	_ZN16allocator_traitsI11mmapreallocImEE10reallocateERS1_Pmmm
	.loc	2 177 21                # main.cc:177:21
	movq	-16(%rbp), %rcx         # 8-byte Reload
	movq	%rax, (%rcx)
	.loc	2 178 13 is_stmt 1      # main.cc:178:13
	jmp	.LBB48_3
.Ltmp343:
.LBB48_2:
	.loc	2 179 23                # main.cc:179:23
	movq	-16(%rbp), %rax         # 8-byte Reload
	movq	$16, 16(%rax)
	.loc	2 180 53                # main.cc:180:53
	movq	-16(%rbp), %rcx         # 8-byte Reload
	movq	16(%rcx), %rsi
	.loc	2 180 23 is_stmt 0      # main.cc:180:23
	movq	%rax, %rdi
	callq	_ZNSt16allocator_traitsI11mmapreallocImEE8allocateERS1_m
	.loc	2 180 21                # main.cc:180:21
	movq	-16(%rbp), %rcx         # 8-byte Reload
	movq	%rax, (%rcx)
.Ltmp344:
.LBB48_3:
	.loc	2 182 9 is_stmt 1       # main.cc:182:9
	addq	$16, %rsp
	popq	%rbp
	retq
.Ltmp345:
.Lfunc_end48:
	.size	_ZN6vectorIm11mmapreallocImEE15double_the_sizeEv, .Lfunc_end48-_ZN6vectorIm11mmapreallocImEE15double_the_sizeEv
	.cfi_endproc
                                        # -- End function
	.section	.text._ZNSt16allocator_traitsI11mmapreallocImEE9constructImJcEEEDTcl12_S_constructfp_fp0_spclsr3stdE7forwardIT0_Efp1_EEERS1_PT_DpOS4_,"axG",@progbits,_ZNSt16allocator_traitsI11mmapreallocImEE9constructImJcEEEDTcl12_S_constructfp_fp0_spclsr3stdE7forwardIT0_Efp1_EEERS1_PT_DpOS4_,comdat
	.weak	_ZNSt16allocator_traitsI11mmapreallocImEE9constructImJcEEEDTcl12_S_constructfp_fp0_spclsr3stdE7forwardIT0_Efp1_EEERS1_PT_DpOS4_ # -- Begin function _ZNSt16allocator_traitsI11mmapreallocImEE9constructImJcEEEDTcl12_S_constructfp_fp0_spclsr3stdE7forwardIT0_Efp1_EEERS1_PT_DpOS4_
	.p2align	4, 0x90
	.type	_ZNSt16allocator_traitsI11mmapreallocImEE9constructImJcEEEDTcl12_S_constructfp_fp0_spclsr3stdE7forwardIT0_Efp1_EEERS1_PT_DpOS4_,@function
_ZNSt16allocator_traitsI11mmapreallocImEE9constructImJcEEEDTcl12_S_constructfp_fp0_spclsr3stdE7forwardIT0_Efp1_EEERS1_PT_DpOS4_: # @_ZNSt16allocator_traitsI11mmapreallocImEE9constructImJcEEEDTcl12_S_constructfp_fp0_spclsr3stdE7forwardIT0_Efp1_EEERS1_PT_DpOS4_
.Lfunc_begin49:
	.loc	6 344 0                 # /usr/lib/gcc/x86_64-linux-gnu/6.3.0/../../../../include/c++/6.3.0/bits/alloc_traits.h:344:0
	.cfi_startproc
# %bb.0:
	pushq	%rbp
	.cfi_def_cfa_offset 16
	.cfi_offset %rbp, -16
	movq	%rsp, %rbp
	.cfi_def_cfa_register %rbp
	subq	$48, %rsp
	movq	%rdi, -8(%rbp)
	movq	%rsi, -16(%rbp)
	movq	%rdx, -24(%rbp)
.Ltmp346:
	.loc	6 344 17 prologue_end   # /usr/lib/gcc/x86_64-linux-gnu/6.3.0/../../../../include/c++/6.3.0/bits/alloc_traits.h:344:17
	movq	-8(%rbp), %rdi
	.loc	6 344 22 is_stmt 0      # /usr/lib/gcc/x86_64-linux-gnu/6.3.0/../../../../include/c++/6.3.0/bits/alloc_traits.h:344:22
	movq	-16(%rbp), %rsi
	.loc	6 344 47                # /usr/lib/gcc/x86_64-linux-gnu/6.3.0/../../../../include/c++/6.3.0/bits/alloc_traits.h:344:47
	movq	-24(%rbp), %rdx
	.loc	6 344 27                # /usr/lib/gcc/x86_64-linux-gnu/6.3.0/../../../../include/c++/6.3.0/bits/alloc_traits.h:344:27
	movq	%rdi, -32(%rbp)         # 8-byte Spill
	movq	%rdx, %rdi
	movq	%rsi, -40(%rbp)         # 8-byte Spill
	callq	_ZSt7forwardIcEOT_RNSt16remove_referenceIS0_E4typeE
	.loc	6 344 4                 # /usr/lib/gcc/x86_64-linux-gnu/6.3.0/../../../../include/c++/6.3.0/bits/alloc_traits.h:344:4
	movq	-32(%rbp), %rdi         # 8-byte Reload
	movq	-40(%rbp), %rsi         # 8-byte Reload
	movq	%rax, %rdx
	callq	_ZNSt16allocator_traitsI11mmapreallocImEE12_S_constructImJcEEENSt9enable_ifIXsr6__and_ISt6__and_IJSt6__not_INS2_18__construct_helperIT_JDpT0_EE4typeEESt16is_constructibleIS8_JSA_EEEEEE5valueEvE4typeERS1_PS8_DpOS9_
	.loc	6 344 60                # /usr/lib/gcc/x86_64-linux-gnu/6.3.0/../../../../include/c++/6.3.0/bits/alloc_traits.h:344:60
	addq	$48, %rsp
	popq	%rbp
	retq
.Ltmp347:
.Lfunc_end49:
	.size	_ZNSt16allocator_traitsI11mmapreallocImEE9constructImJcEEEDTcl12_S_constructfp_fp0_spclsr3stdE7forwardIT0_Efp1_EEERS1_PT_DpOS4_, .Lfunc_end49-_ZNSt16allocator_traitsI11mmapreallocImEE9constructImJcEEEDTcl12_S_constructfp_fp0_spclsr3stdE7forwardIT0_Efp1_EEERS1_PT_DpOS4_
	.cfi_endproc
                                        # -- End function
	.section	.text._ZN16allocator_traitsI11mmapreallocImEE10reallocateERS1_Pmmm,"axG",@progbits,_ZN16allocator_traitsI11mmapreallocImEE10reallocateERS1_Pmmm,comdat
	.weak	_ZN16allocator_traitsI11mmapreallocImEE10reallocateERS1_Pmmm # -- Begin function _ZN16allocator_traitsI11mmapreallocImEE10reallocateERS1_Pmmm
	.p2align	4, 0x90
	.type	_ZN16allocator_traitsI11mmapreallocImEE10reallocateERS1_Pmmm,@function
_ZN16allocator_traitsI11mmapreallocImEE10reallocateERS1_Pmmm: # @_ZN16allocator_traitsI11mmapreallocImEE10reallocateERS1_Pmmm
.Lfunc_begin50:
	.loc	2 137 0 is_stmt 1       # main.cc:137:0
	.cfi_startproc
# %bb.0:
	pushq	%rbp
	.cfi_def_cfa_offset 16
	.cfi_offset %rbp, -16
	movq	%rsp, %rbp
	.cfi_def_cfa_register %rbp
	subq	$32, %rsp
	movq	%rdi, -8(%rbp)
	movq	%rsi, -16(%rbp)
	movq	%rdx, -24(%rbp)
	movq	%rcx, -32(%rbp)
.Ltmp348:
	.loc	2 139 24 prologue_end   # main.cc:139:24
	movq	-8(%rbp), %rdi
	.loc	2 139 41 is_stmt 0      # main.cc:139:41
	movq	-16(%rbp), %rsi
	.loc	2 139 51                # main.cc:139:51
	movq	-24(%rbp), %rdx
	.loc	2 139 61                # main.cc:139:61
	movq	-32(%rbp), %rcx
	.loc	2 139 30                # main.cc:139:30
	callq	_ZNK11mmapreallocImE10reallocateEPmmm
	.loc	2 139 17                # main.cc:139:17
	addq	$32, %rsp
	popq	%rbp
	retq
.Ltmp349:
.Lfunc_end50:
	.size	_ZN16allocator_traitsI11mmapreallocImEE10reallocateERS1_Pmmm, .Lfunc_end50-_ZN16allocator_traitsI11mmapreallocImEE10reallocateERS1_Pmmm
	.cfi_endproc
                                        # -- End function
	.section	.text._ZNSt16allocator_traitsI11mmapreallocImEE8allocateERS1_m,"axG",@progbits,_ZNSt16allocator_traitsI11mmapreallocImEE8allocateERS1_m,comdat
	.weak	_ZNSt16allocator_traitsI11mmapreallocImEE8allocateERS1_m # -- Begin function _ZNSt16allocator_traitsI11mmapreallocImEE8allocateERS1_m
	.p2align	4, 0x90
	.type	_ZNSt16allocator_traitsI11mmapreallocImEE8allocateERS1_m,@function
_ZNSt16allocator_traitsI11mmapreallocImEE8allocateERS1_m: # @_ZNSt16allocator_traitsI11mmapreallocImEE8allocateERS1_m
.Lfunc_begin51:
	.loc	6 301 0 is_stmt 1       # /usr/lib/gcc/x86_64-linux-gnu/6.3.0/../../../../include/c++/6.3.0/bits/alloc_traits.h:301:0
	.cfi_startproc
# %bb.0:
	pushq	%rbp
	.cfi_def_cfa_offset 16
	.cfi_offset %rbp, -16
	movq	%rsp, %rbp
	.cfi_def_cfa_register %rbp
	subq	$16, %rsp
	movq	%rdi, -8(%rbp)
	movq	%rsi, -16(%rbp)
.Ltmp350:
	.loc	6 301 16 prologue_end   # /usr/lib/gcc/x86_64-linux-gnu/6.3.0/../../../../include/c++/6.3.0/bits/alloc_traits.h:301:16
	movq	-8(%rbp), %rdi
	.loc	6 301 29 is_stmt 0      # /usr/lib/gcc/x86_64-linux-gnu/6.3.0/../../../../include/c++/6.3.0/bits/alloc_traits.h:301:29
	movq	-16(%rbp), %rsi
	.loc	6 301 20                # /usr/lib/gcc/x86_64-linux-gnu/6.3.0/../../../../include/c++/6.3.0/bits/alloc_traits.h:301:20
	callq	_ZNK11mmapreallocImE8allocateEm
	.loc	6 301 9                 # /usr/lib/gcc/x86_64-linux-gnu/6.3.0/../../../../include/c++/6.3.0/bits/alloc_traits.h:301:9
	addq	$16, %rsp
	popq	%rbp
	retq
.Ltmp351:
.Lfunc_end51:
	.size	_ZNSt16allocator_traitsI11mmapreallocImEE8allocateERS1_m, .Lfunc_end51-_ZNSt16allocator_traitsI11mmapreallocImEE8allocateERS1_m
	.cfi_endproc
                                        # -- End function
	.section	.text._ZNK11mmapreallocImE10reallocateEPmmm,"axG",@progbits,_ZNK11mmapreallocImE10reallocateEPmmm,comdat
	.weak	_ZNK11mmapreallocImE10reallocateEPmmm # -- Begin function _ZNK11mmapreallocImE10reallocateEPmmm
	.p2align	4, 0x90
	.type	_ZNK11mmapreallocImE10reallocateEPmmm,@function
_ZNK11mmapreallocImE10reallocateEPmmm:  # @_ZNK11mmapreallocImE10reallocateEPmmm
.Lfunc_begin52:
	.loc	2 70 0 is_stmt 1        # main.cc:70:0
	.cfi_startproc
# %bb.0:
	pushq	%rbp
	.cfi_def_cfa_offset 16
	.cfi_offset %rbp, -16
	movq	%rsp, %rbp
	.cfi_def_cfa_register %rbp
	subq	$32, %rsp
	movl	$1, %r8d
	movq	%rdi, -8(%rbp)
	movq	%rsi, -16(%rbp)
	movq	%rdx, -24(%rbp)
	movq	%rcx, -32(%rbp)
	movq	-8(%rbp), %rdi
.Ltmp352:
	.loc	2 71 36 prologue_end    # main.cc:71:36
	movq	-16(%rbp), %rsi
	.loc	2 71 45 is_stmt 0       # main.cc:71:45
	movq	-24(%rbp), %rdx
	.loc	2 71 54                 # main.cc:71:54
	movq	-32(%rbp), %rcx
	.loc	2 71 20                 # main.cc:71:20
	callq	_ZNK11mmapreallocImE15reallocate_implEPmmmi
	.loc	2 71 13                 # main.cc:71:13
	addq	$32, %rsp
	popq	%rbp
	retq
.Ltmp353:
.Lfunc_end52:
	.size	_ZNK11mmapreallocImE10reallocateEPmmm, .Lfunc_end52-_ZNK11mmapreallocImE10reallocateEPmmm
	.cfi_endproc
                                        # -- End function
	.section	.text._ZNK11mmapreallocImE15reallocate_implEPmmmi,"axG",@progbits,_ZNK11mmapreallocImE15reallocate_implEPmmmi,comdat
	.weak	_ZNK11mmapreallocImE15reallocate_implEPmmmi # -- Begin function _ZNK11mmapreallocImE15reallocate_implEPmmmi
	.p2align	4, 0x90
	.type	_ZNK11mmapreallocImE15reallocate_implEPmmmi,@function
_ZNK11mmapreallocImE15reallocate_implEPmmmi: # @_ZNK11mmapreallocImE15reallocate_implEPmmmi
.Lfunc_begin53:
	.loc	2 86 0 is_stmt 1        # main.cc:86:0
	.cfi_startproc
# %bb.0:
	pushq	%rbp
	.cfi_def_cfa_offset 16
	.cfi_offset %rbp, -16
	movq	%rsp, %rbp
	.cfi_def_cfa_register %rbp
	subq	$64, %rsp
	movq	%rdi, -8(%rbp)
	movq	%rsi, -16(%rbp)
	movq	%rdx, -24(%rbp)
	movq	%rcx, -32(%rbp)
	movl	%r8d, -36(%rbp)
.Ltmp354:
	.loc	2 87 42 prologue_end    # main.cc:87:42
	movq	-16(%rbp), %rcx
	.loc	2 87 51 is_stmt 0       # main.cc:87:51
	movq	-24(%rbp), %rsi
	.loc	2 87 76                 # main.cc:87:76
	movq	-32(%rbp), %rdi
	.loc	2 87 60                 # main.cc:87:60
	movq	%rcx, -56(%rbp)         # 8-byte Spill
	movq	%rsi, -64(%rbp)         # 8-byte Spill
	callq	_ZN11mmapreallocImE15get_proper_sizeEm
	.loc	2 87 83                 # main.cc:87:83
	movl	-36(%rbp), %ecx
	.loc	2 87 28                 # main.cc:87:28
	movq	-56(%rbp), %rdi         # 8-byte Reload
	movq	-64(%rbp), %rsi         # 8-byte Reload
	movq	%rax, %rdx
	movb	$0, %al
	callq	mremap
	.loc	2 87 22                 # main.cc:87:22
	movq	%rax, -48(%rbp)
	cmpq	$0, -48(%rbp)
.Ltmp355:
	.loc	2 87 22                 # main.cc:87:22
	je	.LBB53_2
# %bb.1:
.Ltmp356:
	.loc	2 88 45 is_stmt 1       # main.cc:88:45
	movq	-48(%rbp), %rax
	.loc	2 88 17 is_stmt 0       # main.cc:88:17
	addq	$64, %rsp
	popq	%rbp
	retq
.LBB53_2:
	.loc	2 0 17                  # main.cc:0:17
	movl	$15, %edi
	.loc	2 90 17 is_stmt 1       # main.cc:90:17
	callq	_ZN11mmapreallocImE4failEi
# %bb.3:
	.loc	2 87 22                 # main.cc:87:22
	ud2
.Ltmp357:
.Lfunc_end53:
	.size	_ZNK11mmapreallocImE15reallocate_implEPmmmi, .Lfunc_end53-_ZNK11mmapreallocImE15reallocate_implEPmmmi
	.cfi_endproc
                                        # -- End function
	.section	.text._ZN11mmapreallocImE15get_proper_sizeEm,"axG",@progbits,_ZN11mmapreallocImE15get_proper_sizeEm,comdat
	.weak	_ZN11mmapreallocImE15get_proper_sizeEm # -- Begin function _ZN11mmapreallocImE15get_proper_sizeEm
	.p2align	4, 0x90
	.type	_ZN11mmapreallocImE15get_proper_sizeEm,@function
_ZN11mmapreallocImE15get_proper_sizeEm: # @_ZN11mmapreallocImE15get_proper_sizeEm
.Lfunc_begin54:
	.loc	2 94 0                  # main.cc:94:0
	.cfi_startproc
# %bb.0:
	pushq	%rbp
	.cfi_def_cfa_offset 16
	.cfi_offset %rbp, -16
	movq	%rsp, %rbp
	.cfi_def_cfa_register %rbp
	subq	$16, %rsp
	movq	%rdi, -8(%rbp)
.Ltmp358:
	.loc	2 95 38 prologue_end    # main.cc:95:38
	movq	-8(%rbp), %rdi
	.loc	2 95 20 is_stmt 0       # main.cc:95:20
	callq	_ZN11mmapreallocImE17round_to_pagesizeEm
	.loc	2 95 13                 # main.cc:95:13
	addq	$16, %rsp
	popq	%rbp
	retq
.Ltmp359:
.Lfunc_end54:
	.size	_ZN11mmapreallocImE15get_proper_sizeEm, .Lfunc_end54-_ZN11mmapreallocImE15get_proper_sizeEm
	.cfi_endproc
                                        # -- End function
	.section	.text._ZN11mmapreallocImE4failEi,"axG",@progbits,_ZN11mmapreallocImE4failEi,comdat
	.weak	_ZN11mmapreallocImE4failEi # -- Begin function _ZN11mmapreallocImE4failEi
	.p2align	4, 0x90
	.type	_ZN11mmapreallocImE4failEi,@function
_ZN11mmapreallocImE4failEi:             # @_ZN11mmapreallocImE4failEi
.Lfunc_begin55:
	.loc	2 102 0 is_stmt 1       # main.cc:102:0
	.cfi_startproc
# %bb.0:
	pushq	%rbp
	.cfi_def_cfa_offset 16
	.cfi_offset %rbp, -16
	movq	%rsp, %rbp
	.cfi_def_cfa_register %rbp
	subq	$32, %rsp
	movl	%edi, -4(%rbp)
.Ltmp360:
	.loc	2 103 27 prologue_end   # main.cc:103:27
	callq	_ZN5linux9get_errnoEv
	.loc	2 103 18 is_stmt 0      # main.cc:103:18
	movl	%eax, -8(%rbp)
	.loc	2 104 13 is_stmt 1      # main.cc:104:13
	movl	-8(%rbp), %eax
	cmpl	-4(%rbp), %eax
	jne	.LBB55_2
# %bb.1:
	jmp	.LBB55_3
.LBB55_2:
	.loc	2 0 13 is_stmt 0        # main.cc:0:13
	movabsq	$.L.str.11, %rdi
	movabsq	$.L.str.12, %rsi
	movl	$104, %edx
	movabsq	$.L__PRETTY_FUNCTION__._ZN11mmapreallocImE4failEi, %rcx
	.loc	2 104 13                # main.cc:104:13
	callq	__assert_fail
.LBB55_3:
	.loc	2 0 13                  # main.cc:0:13
	movl	$8, %eax
	movl	%eax, %edi
	.loc	2 105 13 is_stmt 1      # main.cc:105:13
	callq	__cxa_allocate_exception
	movq	%rax, %rdi
	.loc	2 105 19 is_stmt 0      # main.cc:105:19
	movq	%rax, -16(%rbp)         # 8-byte Spill
	callq	_ZNSt9bad_allocC2Ev
	movabsq	$_ZTISt9bad_alloc, %rax
	movabsq	$_ZNSt9bad_allocD1Ev, %rdi
	.loc	2 105 13                # main.cc:105:13
	movq	-16(%rbp), %rcx         # 8-byte Reload
	movq	%rdi, -24(%rbp)         # 8-byte Spill
	movq	%rcx, %rdi
	movq	%rax, %rsi
	movq	-24(%rbp), %rdx         # 8-byte Reload
	callq	__cxa_throw
.Ltmp361:
.Lfunc_end55:
	.size	_ZN11mmapreallocImE4failEi, .Lfunc_end55-_ZN11mmapreallocImE4failEi
	.cfi_endproc
                                        # -- End function
	.section	.text._ZN11mmapreallocImE17round_to_pagesizeEm,"axG",@progbits,_ZN11mmapreallocImE17round_to_pagesizeEm,comdat
	.weak	_ZN11mmapreallocImE17round_to_pagesizeEm # -- Begin function _ZN11mmapreallocImE17round_to_pagesizeEm
	.p2align	4, 0x90
	.type	_ZN11mmapreallocImE17round_to_pagesizeEm,@function
_ZN11mmapreallocImE17round_to_pagesizeEm: # @_ZN11mmapreallocImE17round_to_pagesizeEm
.Lfunc_begin56:
	.loc	2 97 0 is_stmt 1        # main.cc:97:0
	.cfi_startproc
# %bb.0:
	pushq	%rbp
	.cfi_def_cfa_offset 16
	.cfi_offset %rbp, -16
	movq	%rsp, %rbp
	.cfi_def_cfa_register %rbp
	movq	%rdi, -8(%rbp)
.Ltmp362:
	.loc	2 98 21 prologue_end    # main.cc:98:21
	movq	-8(%rbp), %rdi
	.loc	2 98 25 is_stmt 0       # main.cc:98:25
	addq	$4095, %rdi             # imm = 0xFFF
	.loc	2 98 38                 # main.cc:98:38
	andq	$-4096, %rdi            # imm = 0xF000
	.loc	2 98 13                 # main.cc:98:13
	movq	%rdi, %rax
	popq	%rbp
	retq
.Ltmp363:
.Lfunc_end56:
	.size	_ZN11mmapreallocImE17round_to_pagesizeEm, .Lfunc_end56-_ZN11mmapreallocImE17round_to_pagesizeEm
	.cfi_endproc
                                        # -- End function
	.section	.text._ZNK11mmapreallocImE8allocateEm,"axG",@progbits,_ZNK11mmapreallocImE8allocateEm,comdat
	.weak	_ZNK11mmapreallocImE8allocateEm # -- Begin function _ZNK11mmapreallocImE8allocateEm
	.p2align	4, 0x90
	.type	_ZNK11mmapreallocImE8allocateEm,@function
_ZNK11mmapreallocImE8allocateEm:        # @_ZNK11mmapreallocImE8allocateEm
.Lfunc_begin57:
	.loc	2 66 0 is_stmt 1        # main.cc:66:0
	.cfi_startproc
# %bb.0:
	pushq	%rbp
	.cfi_def_cfa_offset 16
	.cfi_offset %rbp, -16
	movq	%rsp, %rbp
	.cfi_def_cfa_register %rbp
	subq	$16, %rsp
	movl	$34, %edx
	movq	%rdi, -8(%rbp)
	movq	%rsi, -16(%rbp)
	movq	-8(%rbp), %rdi
.Ltmp364:
	.loc	2 67 34 prologue_end    # main.cc:67:34
	movq	-16(%rbp), %rsi
	.loc	2 67 20 is_stmt 0       # main.cc:67:20
	callq	_ZNK11mmapreallocImE13allocate_implEmi
	.loc	2 67 13                 # main.cc:67:13
	addq	$16, %rsp
	popq	%rbp
	retq
.Ltmp365:
.Lfunc_end57:
	.size	_ZNK11mmapreallocImE8allocateEm, .Lfunc_end57-_ZNK11mmapreallocImE8allocateEm
	.cfi_endproc
                                        # -- End function
	.section	.text._ZNK11mmapreallocImE13allocate_implEmi,"axG",@progbits,_ZNK11mmapreallocImE13allocate_implEmi,comdat
	.weak	_ZNK11mmapreallocImE13allocate_implEmi # -- Begin function _ZNK11mmapreallocImE13allocate_implEmi
	.p2align	4, 0x90
	.type	_ZNK11mmapreallocImE13allocate_implEmi,@function
_ZNK11mmapreallocImE13allocate_implEmi: # @_ZNK11mmapreallocImE13allocate_implEmi
.Lfunc_begin58:
	.loc	2 79 0 is_stmt 1        # main.cc:79:0
	.cfi_startproc
# %bb.0:
	pushq	%rbp
	.cfi_def_cfa_offset 16
	.cfi_offset %rbp, -16
	movq	%rsp, %rbp
	.cfi_def_cfa_register %rbp
	subq	$48, %rsp
	movq	%rdi, -8(%rbp)
	movq	%rsi, -16(%rbp)
	movl	%edx, -20(%rbp)
.Ltmp366:
	.loc	2 80 65 prologue_end    # main.cc:80:65
	movq	-16(%rbp), %rdi
	.loc	2 80 49 is_stmt 0       # main.cc:80:49
	callq	_ZN11mmapreallocImE15get_proper_sizeEm
	xorl	%edx, %edx
	movl	%edx, %esi
	movl	$3, %edx
	movl	$4294967295, %r8d       # imm = 0xFFFFFFFF
	.loc	2 80 96                 # main.cc:80:96
	movl	-20(%rbp), %ecx
	.loc	2 80 28                 # main.cc:80:28
	movq	%rsi, %rdi
	movq	%rsi, -40(%rbp)         # 8-byte Spill
	movq	%rax, %rsi
	movq	-40(%rbp), %r9          # 8-byte Reload
	callq	mmap
	.loc	2 80 22                 # main.cc:80:22
	movq	%rax, -32(%rbp)
	cmpq	$0, -32(%rbp)
.Ltmp367:
	.loc	2 80 22                 # main.cc:80:22
	je	.LBB58_2
# %bb.1:
.Ltmp368:
	.loc	2 81 45 is_stmt 1       # main.cc:81:45
	movq	-32(%rbp), %rax
	.loc	2 81 17 is_stmt 0       # main.cc:81:17
	addq	$48, %rsp
	popq	%rbp
	retq
.LBB58_2:
	.loc	2 0 17                  # main.cc:0:17
	movl	$15, %edi
	.loc	2 83 17 is_stmt 1       # main.cc:83:17
	callq	_ZN11mmapreallocImE4failEi
# %bb.3:
	.loc	2 80 22                 # main.cc:80:22
	ud2
.Ltmp369:
.Lfunc_end58:
	.size	_ZNK11mmapreallocImE13allocate_implEmi, .Lfunc_end58-_ZNK11mmapreallocImE13allocate_implEmi
	.cfi_endproc
                                        # -- End function
	.section	.text._ZNSt16allocator_traitsI11mmapreallocImEE12_S_constructImJcEEENSt9enable_ifIXsr6__and_ISt6__and_IJSt6__not_INS2_18__construct_helperIT_JDpT0_EE4typeEESt16is_constructibleIS8_JSA_EEEEEE5valueEvE4typeERS1_PS8_DpOS9_,"axG",@progbits,_ZNSt16allocator_traitsI11mmapreallocImEE12_S_constructImJcEEENSt9enable_ifIXsr6__and_ISt6__and_IJSt6__not_INS2_18__construct_helperIT_JDpT0_EE4typeEESt16is_constructibleIS8_JSA_EEEEEE5valueEvE4typeERS1_PS8_DpOS9_,comdat
	.weak	_ZNSt16allocator_traitsI11mmapreallocImEE12_S_constructImJcEEENSt9enable_ifIXsr6__and_ISt6__and_IJSt6__not_INS2_18__construct_helperIT_JDpT0_EE4typeEESt16is_constructibleIS8_JSA_EEEEEE5valueEvE4typeERS1_PS8_DpOS9_ # -- Begin function _ZNSt16allocator_traitsI11mmapreallocImEE12_S_constructImJcEEENSt9enable_ifIXsr6__and_ISt6__and_IJSt6__not_INS2_18__construct_helperIT_JDpT0_EE4typeEESt16is_constructibleIS8_JSA_EEEEEE5valueEvE4typeERS1_PS8_DpOS9_
	.p2align	4, 0x90
	.type	_ZNSt16allocator_traitsI11mmapreallocImEE12_S_constructImJcEEENSt9enable_ifIXsr6__and_ISt6__and_IJSt6__not_INS2_18__construct_helperIT_JDpT0_EE4typeEESt16is_constructibleIS8_JSA_EEEEEE5valueEvE4typeERS1_PS8_DpOS9_,@function
_ZNSt16allocator_traitsI11mmapreallocImEE12_S_constructImJcEEENSt9enable_ifIXsr6__and_ISt6__and_IJSt6__not_INS2_18__construct_helperIT_JDpT0_EE4typeEESt16is_constructibleIS8_JSA_EEEEEE5valueEvE4typeERS1_PS8_DpOS9_: # @_ZNSt16allocator_traitsI11mmapreallocImEE12_S_constructImJcEEENSt9enable_ifIXsr6__and_ISt6__and_IJSt6__not_INS2_18__construct_helperIT_JDpT0_EE4typeEESt16is_constructibleIS8_JSA_EEEEEE5valueEvE4typeERS1_PS8_DpOS9_
.Lfunc_begin59:
	.loc	6 250 0                 # /usr/lib/gcc/x86_64-linux-gnu/6.3.0/../../../../include/c++/6.3.0/bits/alloc_traits.h:250:0
	.cfi_startproc
# %bb.0:
	pushq	%rbp
	.cfi_def_cfa_offset 16
	.cfi_offset %rbp, -16
	movq	%rsp, %rbp
	.cfi_def_cfa_register %rbp
	subq	$32, %rsp
	movq	%rdi, -8(%rbp)
	movq	%rsi, -16(%rbp)
	movq	%rdx, -24(%rbp)
.Ltmp370:
	.loc	6 250 17 prologue_end   # /usr/lib/gcc/x86_64-linux-gnu/6.3.0/../../../../include/c++/6.3.0/bits/alloc_traits.h:250:17
	movq	-16(%rbp), %rdx
	.loc	6 250 46 is_stmt 0      # /usr/lib/gcc/x86_64-linux-gnu/6.3.0/../../../../include/c++/6.3.0/bits/alloc_traits.h:250:46
	movq	-24(%rbp), %rdi
	.loc	6 250 26                # /usr/lib/gcc/x86_64-linux-gnu/6.3.0/../../../../include/c++/6.3.0/bits/alloc_traits.h:250:26
	movq	%rdx, -32(%rbp)         # 8-byte Spill
	callq	_ZSt7forwardIcEOT_RNSt16remove_referenceIS0_E4typeE
	movsbq	(%rax), %rax
	.loc	6 250 4                 # /usr/lib/gcc/x86_64-linux-gnu/6.3.0/../../../../include/c++/6.3.0/bits/alloc_traits.h:250:4
	movq	-32(%rbp), %rdx         # 8-byte Reload
	movq	%rax, (%rdx)
	.loc	6 250 59                # /usr/lib/gcc/x86_64-linux-gnu/6.3.0/../../../../include/c++/6.3.0/bits/alloc_traits.h:250:59
	addq	$32, %rsp
	popq	%rbp
	retq
.Ltmp371:
.Lfunc_end59:
	.size	_ZNSt16allocator_traitsI11mmapreallocImEE12_S_constructImJcEEENSt9enable_ifIXsr6__and_ISt6__and_IJSt6__not_INS2_18__construct_helperIT_JDpT0_EE4typeEESt16is_constructibleIS8_JSA_EEEEEE5valueEvE4typeERS1_PS8_DpOS9_, .Lfunc_end59-_ZNSt16allocator_traitsI11mmapreallocImEE12_S_constructImJcEEENSt9enable_ifIXsr6__and_ISt6__and_IJSt6__not_INS2_18__construct_helperIT_JDpT0_EE4typeEESt16is_constructibleIS8_JSA_EEEEEE5valueEvE4typeERS1_PS8_DpOS9_
	.cfi_endproc
                                        # -- End function
	.section	.text._ZNSt16allocator_traitsI11mmapreallocImEE10deallocateERS1_Pmm,"axG",@progbits,_ZNSt16allocator_traitsI11mmapreallocImEE10deallocateERS1_Pmm,comdat
	.weak	_ZNSt16allocator_traitsI11mmapreallocImEE10deallocateERS1_Pmm # -- Begin function _ZNSt16allocator_traitsI11mmapreallocImEE10deallocateERS1_Pmm
	.p2align	4, 0x90
	.type	_ZNSt16allocator_traitsI11mmapreallocImEE10deallocateERS1_Pmm,@function
_ZNSt16allocator_traitsI11mmapreallocImEE10deallocateERS1_Pmm: # @_ZNSt16allocator_traitsI11mmapreallocImEE10deallocateERS1_Pmm
.Lfunc_begin60:
	.loc	6 328 0 is_stmt 1       # /usr/lib/gcc/x86_64-linux-gnu/6.3.0/../../../../include/c++/6.3.0/bits/alloc_traits.h:328:0
	.cfi_startproc
# %bb.0:
	pushq	%rbp
	.cfi_def_cfa_offset 16
	.cfi_offset %rbp, -16
	movq	%rsp, %rbp
	.cfi_def_cfa_register %rbp
	subq	$32, %rsp
	movq	%rdi, -8(%rbp)
	movq	%rsi, -16(%rbp)
	movq	%rdx, -24(%rbp)
.Ltmp372:
	.loc	6 328 9 prologue_end    # /usr/lib/gcc/x86_64-linux-gnu/6.3.0/../../../../include/c++/6.3.0/bits/alloc_traits.h:328:9
	movq	-8(%rbp), %rdi
	.loc	6 328 24 is_stmt 0      # /usr/lib/gcc/x86_64-linux-gnu/6.3.0/../../../../include/c++/6.3.0/bits/alloc_traits.h:328:24
	movq	-16(%rbp), %rsi
	.loc	6 328 29                # /usr/lib/gcc/x86_64-linux-gnu/6.3.0/../../../../include/c++/6.3.0/bits/alloc_traits.h:328:29
	movq	-24(%rbp), %rdx
	.loc	6 328 13                # /usr/lib/gcc/x86_64-linux-gnu/6.3.0/../../../../include/c++/6.3.0/bits/alloc_traits.h:328:13
	callq	_ZNK11mmapreallocImE10deallocateEPmm
	.loc	6 328 35                # /usr/lib/gcc/x86_64-linux-gnu/6.3.0/../../../../include/c++/6.3.0/bits/alloc_traits.h:328:35
	addq	$32, %rsp
	popq	%rbp
	retq
.Ltmp373:
.Lfunc_end60:
	.size	_ZNSt16allocator_traitsI11mmapreallocImEE10deallocateERS1_Pmm, .Lfunc_end60-_ZNSt16allocator_traitsI11mmapreallocImEE10deallocateERS1_Pmm
	.cfi_endproc
                                        # -- End function
	.section	.text._ZNK11mmapreallocImE10deallocateEPmm,"axG",@progbits,_ZNK11mmapreallocImE10deallocateEPmm,comdat
	.weak	_ZNK11mmapreallocImE10deallocateEPmm # -- Begin function _ZNK11mmapreallocImE10deallocateEPmm
	.p2align	4, 0x90
	.type	_ZNK11mmapreallocImE10deallocateEPmm,@function
_ZNK11mmapreallocImE10deallocateEPmm:   # @_ZNK11mmapreallocImE10deallocateEPmm
.Lfunc_begin61:
	.loc	2 74 0 is_stmt 1        # main.cc:74:0
	.cfi_startproc
# %bb.0:
	pushq	%rbp
	.cfi_def_cfa_offset 16
	.cfi_offset %rbp, -16
	movq	%rsp, %rbp
	.cfi_def_cfa_register %rbp
	subq	$32, %rsp
	movq	%rdi, -8(%rbp)
	movq	%rsi, -16(%rbp)
	movq	%rdx, -24(%rbp)
.Ltmp374:
	.loc	2 75 13 prologue_end    # main.cc:75:13
	movq	-16(%rbp), %rdx
	movq	-24(%rbp), %rsi
	movq	%rdx, %rdi
	callq	munmap
	cmpl	$0, %eax
	jne	.LBB61_2
# %bb.1:
	jmp	.LBB61_3
.LBB61_2:
	.loc	2 0 13 is_stmt 0        # main.cc:0:13
	movabsq	$.L.str.13, %rdi
	movabsq	$.L.str.12, %rsi
	movl	$75, %edx
	movabsq	$.L__PRETTY_FUNCTION__._ZNK11mmapreallocImE10deallocateEPmm, %rcx
	.loc	2 75 13                 # main.cc:75:13
	callq	__assert_fail
.LBB61_3:
	.loc	2 76 9 is_stmt 1        # main.cc:76:9
	addq	$32, %rsp
	popq	%rbp
	retq
.Ltmp375:
.Lfunc_end61:
	.size	_ZNK11mmapreallocImE10deallocateEPmm, .Lfunc_end61-_ZNK11mmapreallocImE10deallocateEPmm
	.cfi_endproc
                                        # -- End function
	.section	.text._ZN6vectorIm24mmaprealloc_populate_verImEEC2Ev,"axG",@progbits,_ZN6vectorIm24mmaprealloc_populate_verImEEC2Ev,comdat
	.weak	_ZN6vectorIm24mmaprealloc_populate_verImEEC2Ev # -- Begin function _ZN6vectorIm24mmaprealloc_populate_verImEEC2Ev
	.p2align	4, 0x90
	.type	_ZN6vectorIm24mmaprealloc_populate_verImEEC2Ev,@function
_ZN6vectorIm24mmaprealloc_populate_verImEEC2Ev: # @_ZN6vectorIm24mmaprealloc_populate_verImEEC2Ev
.Lfunc_begin62:
	.loc	2 156 0                 # main.cc:156:0
	.cfi_startproc
# %bb.0:
	pushq	%rbp
	.cfi_def_cfa_offset 16
	.cfi_offset %rbp, -16
	movq	%rsp, %rbp
	.cfi_def_cfa_register %rbp
	movq	%rdi, -8(%rbp)
	movq	-8(%rbp), %rdi
.Ltmp376:
	.loc	2 160 17 prologue_end   # main.cc:160:17
	movq	$0, (%rdi)
	.loc	2 161 16                # main.cc:161:16
	movq	$0, 8(%rdi)
	.loc	2 162 16                # main.cc:162:16
	movq	$0, 16(%rdi)
	.loc	2 156 12                # main.cc:156:12
	popq	%rbp
	retq
.Ltmp377:
.Lfunc_end62:
	.size	_ZN6vectorIm24mmaprealloc_populate_verImEEC2Ev, .Lfunc_end62-_ZN6vectorIm24mmaprealloc_populate_verImEEC2Ev
	.cfi_endproc
                                        # -- End function
	.section	.text._ZN6vectorIm24mmaprealloc_populate_verImEE12emplace_backIJcEEEvDpOT_,"axG",@progbits,_ZN6vectorIm24mmaprealloc_populate_verImEE12emplace_backIJcEEEvDpOT_,comdat
	.weak	_ZN6vectorIm24mmaprealloc_populate_verImEE12emplace_backIJcEEEvDpOT_ # -- Begin function _ZN6vectorIm24mmaprealloc_populate_verImEE12emplace_backIJcEEEvDpOT_
	.p2align	4, 0x90
	.type	_ZN6vectorIm24mmaprealloc_populate_verImEE12emplace_backIJcEEEvDpOT_,@function
_ZN6vectorIm24mmaprealloc_populate_verImEE12emplace_backIJcEEEvDpOT_: # @_ZN6vectorIm24mmaprealloc_populate_verImEE12emplace_backIJcEEEvDpOT_
.Lfunc_begin63:
	.loc	2 169 0                 # main.cc:169:0
	.cfi_startproc
# %bb.0:
	pushq	%rbp
	.cfi_def_cfa_offset 16
	.cfi_offset %rbp, -16
	movq	%rsp, %rbp
	.cfi_def_cfa_register %rbp
	subq	$48, %rsp
	movq	%rdi, -8(%rbp)
	movq	%rsi, -16(%rbp)
	movq	-8(%rbp), %rsi
.Ltmp378:
	.loc	2 170 17 prologue_end   # main.cc:170:17
	movq	8(%rsi), %rdi
	.loc	2 170 22 is_stmt 0      # main.cc:170:22
	cmpq	16(%rsi), %rdi
.Ltmp379:
	.loc	2 170 17                # main.cc:170:17
	movq	%rsi, -24(%rbp)         # 8-byte Spill
	jne	.LBB63_2
# %bb.1:
.Ltmp380:
	.loc	2 171 17 is_stmt 1      # main.cc:171:17
	movq	-24(%rbp), %rdi         # 8-byte Reload
	callq	_ZN6vectorIm24mmaprealloc_populate_verImEE15double_the_sizeEv
.Ltmp381:
.LBB63_2:
	.loc	2 172 37                # main.cc:172:37
	movq	-24(%rbp), %rax         # 8-byte Reload
	.loc	2 172 45 is_stmt 0      # main.cc:172:45
	movq	-24(%rbp), %rcx         # 8-byte Reload
	movq	(%rcx), %rdx
	.loc	2 172 53                # main.cc:172:53
	movq	8(%rcx), %rsi
	movq	%rsi, %rdi
	addq	$1, %rdi
	movq	%rdi, 8(%rcx)
	.loc	2 172 45                # main.cc:172:45
	shlq	$3, %rsi
	addq	%rsi, %rdx
	.loc	2 172 77                # main.cc:172:77
	movq	-16(%rbp), %rdi
	.loc	2 172 58                # main.cc:172:58
	movq	%rax, -32(%rbp)         # 8-byte Spill
	movq	%rdx, -40(%rbp)         # 8-byte Spill
	callq	_ZSt7forwardIcEOT_RNSt16remove_referenceIS0_E4typeE
	.loc	2 172 13                # main.cc:172:13
	movq	-32(%rbp), %rdi         # 8-byte Reload
	movq	-40(%rbp), %rsi         # 8-byte Reload
	movq	%rax, %rdx
	callq	_ZNSt16allocator_traitsI24mmaprealloc_populate_verImEE9constructImJcEEEDTcl12_S_constructfp_fp0_spclsr3stdE7forwardIT0_Efp1_EEERS1_PT_DpOS4_
	.loc	2 173 9 is_stmt 1       # main.cc:173:9
	addq	$48, %rsp
	popq	%rbp
	retq
.Ltmp382:
.Lfunc_end63:
	.size	_ZN6vectorIm24mmaprealloc_populate_verImEE12emplace_backIJcEEEvDpOT_, .Lfunc_end63-_ZN6vectorIm24mmaprealloc_populate_verImEE12emplace_backIJcEEEvDpOT_
	.cfi_endproc
                                        # -- End function
	.section	.text._ZN6vectorIm24mmaprealloc_populate_verImEED2Ev,"axG",@progbits,_ZN6vectorIm24mmaprealloc_populate_verImEED2Ev,comdat
	.weak	_ZN6vectorIm24mmaprealloc_populate_verImEED2Ev # -- Begin function _ZN6vectorIm24mmaprealloc_populate_verImEED2Ev
	.p2align	4, 0x90
	.type	_ZN6vectorIm24mmaprealloc_populate_verImEED2Ev,@function
_ZN6vectorIm24mmaprealloc_populate_verImEED2Ev: # @_ZN6vectorIm24mmaprealloc_populate_verImEED2Ev
.Lfunc_begin64:
	.loc	2 164 0                 # main.cc:164:0
	.cfi_startproc
	.cfi_personality 3, __gxx_personality_v0
	.cfi_lsda 3, .Lexception11
# %bb.0:
	pushq	%rbp
	.cfi_def_cfa_offset 16
	.cfi_offset %rbp, -16
	movq	%rsp, %rbp
	.cfi_def_cfa_register %rbp
	subq	$16, %rsp
	movq	%rdi, -8(%rbp)
	movq	-8(%rbp), %rdi
.Ltmp386:
	.loc	2 165 45 prologue_end   # main.cc:165:45
	movq	(%rdi), %rsi
	.loc	2 165 50 is_stmt 0      # main.cc:165:50
	movq	16(%rdi), %rdx
.Ltmp383:
	.loc	2 165 13                # main.cc:165:13
	callq	_ZNSt16allocator_traitsI24mmaprealloc_populate_verImEE10deallocateERS1_Pmm
.Ltmp384:
	jmp	.LBB64_1
.Ltmp387:
.LBB64_1:
	.loc	2 166 9 is_stmt 1       # main.cc:166:9
	addq	$16, %rsp
	popq	%rbp
	retq
.LBB64_2:
.Ltmp385:
.Ltmp388:
	.loc	2 165 13                # main.cc:165:13
	movl	%edx, %ecx
	movq	%rax, %rdi
	movl	%ecx, -12(%rbp)         # 4-byte Spill
	callq	__clang_call_terminate
.Ltmp389:
.Lfunc_end64:
	.size	_ZN6vectorIm24mmaprealloc_populate_verImEED2Ev, .Lfunc_end64-_ZN6vectorIm24mmaprealloc_populate_verImEED2Ev
	.cfi_endproc
	.section	.gcc_except_table,"a",@progbits
	.p2align	2
GCC_except_table64:
.Lexception11:
	.byte	255                     # @LPStart Encoding = omit
	.byte	3                       # @TType Encoding = udata4
	.byte	21                      # @TType base offset
	.byte	3                       # Call site Encoding = udata4
	.byte	13                      # Call site table length
	.long	.Ltmp383-.Lfunc_begin64 # >> Call Site 1 <<
	.long	.Ltmp384-.Ltmp383       #   Call between .Ltmp383 and .Ltmp384
	.long	.Ltmp385-.Lfunc_begin64 #     jumps to .Ltmp385
	.byte	1                       #   On action: 1
	.byte	1                       # >> Action Record 1 <<
                                        #   Catch TypeInfo 1
	.byte	0                       #   No further actions
                                        # >> Catch TypeInfos <<
	.long	0                       # TypeInfo 1
	.p2align	2
                                        # -- End function
	.section	.text._ZN6vectorIm24mmaprealloc_populate_verImEE15double_the_sizeEv,"axG",@progbits,_ZN6vectorIm24mmaprealloc_populate_verImEE15double_the_sizeEv,comdat
	.weak	_ZN6vectorIm24mmaprealloc_populate_verImEE15double_the_sizeEv # -- Begin function _ZN6vectorIm24mmaprealloc_populate_verImEE15double_the_sizeEv
	.p2align	4, 0x90
	.type	_ZN6vectorIm24mmaprealloc_populate_verImEE15double_the_sizeEv,@function
_ZN6vectorIm24mmaprealloc_populate_verImEE15double_the_sizeEv: # @_ZN6vectorIm24mmaprealloc_populate_verImEE15double_the_sizeEv
.Lfunc_begin65:
	.loc	2 174 0                 # main.cc:174:0
	.cfi_startproc
# %bb.0:
	pushq	%rbp
	.cfi_def_cfa_offset 16
	.cfi_offset %rbp, -16
	movq	%rsp, %rbp
	.cfi_def_cfa_register %rbp
	subq	$16, %rsp
	movq	%rdi, -8(%rbp)
	movq	-8(%rbp), %rdi
.Ltmp390:
	.loc	2 175 36 prologue_end   # main.cc:175:36
	cmpq	$0, 16(%rdi)
	setne	%al
	.loc	2 175 35 is_stmt 0      # main.cc:175:35
	xorb	$-1, %al
	.loc	2 175 34                # main.cc:175:34
	xorb	$-1, %al
.Ltmp391:
	.loc	2 175 17                # main.cc:175:17
	testb	$1, %al
	movq	%rdi, -16(%rbp)         # 8-byte Spill
	jne	.LBB65_1
	jmp	.LBB65_2
.LBB65_1:
.Ltmp392:
	.loc	2 176 23 is_stmt 1      # main.cc:176:23
	movq	-16(%rbp), %rax         # 8-byte Reload
	movq	16(%rax), %rcx
	shlq	$1, %rcx
	movq	%rcx, 16(%rax)
	.loc	2 177 55                # main.cc:177:55
	movq	-16(%rbp), %rcx         # 8-byte Reload
	movq	(%rcx), %rsi
	.loc	2 177 60 is_stmt 0      # main.cc:177:60
	movq	8(%rcx), %rdx
	.loc	2 177 66                # main.cc:177:66
	movq	16(%rcx), %rcx
	.loc	2 177 23                # main.cc:177:23
	movq	%rax, %rdi
	callq	_ZN16allocator_traitsI24mmaprealloc_populate_verImEE10reallocateERS1_Pmmm
	.loc	2 177 21                # main.cc:177:21
	movq	-16(%rbp), %rcx         # 8-byte Reload
	movq	%rax, (%rcx)
	.loc	2 178 13 is_stmt 1      # main.cc:178:13
	jmp	.LBB65_3
.Ltmp393:
.LBB65_2:
	.loc	2 179 23                # main.cc:179:23
	movq	-16(%rbp), %rax         # 8-byte Reload
	movq	$16, 16(%rax)
	.loc	2 180 53                # main.cc:180:53
	movq	-16(%rbp), %rcx         # 8-byte Reload
	movq	16(%rcx), %rsi
	.loc	2 180 23 is_stmt 0      # main.cc:180:23
	movq	%rax, %rdi
	callq	_ZNSt16allocator_traitsI24mmaprealloc_populate_verImEE8allocateERS1_m
	.loc	2 180 21                # main.cc:180:21
	movq	-16(%rbp), %rcx         # 8-byte Reload
	movq	%rax, (%rcx)
.Ltmp394:
.LBB65_3:
	.loc	2 182 9 is_stmt 1       # main.cc:182:9
	addq	$16, %rsp
	popq	%rbp
	retq
.Ltmp395:
.Lfunc_end65:
	.size	_ZN6vectorIm24mmaprealloc_populate_verImEE15double_the_sizeEv, .Lfunc_end65-_ZN6vectorIm24mmaprealloc_populate_verImEE15double_the_sizeEv
	.cfi_endproc
                                        # -- End function
	.section	.text._ZNSt16allocator_traitsI24mmaprealloc_populate_verImEE9constructImJcEEEDTcl12_S_constructfp_fp0_spclsr3stdE7forwardIT0_Efp1_EEERS1_PT_DpOS4_,"axG",@progbits,_ZNSt16allocator_traitsI24mmaprealloc_populate_verImEE9constructImJcEEEDTcl12_S_constructfp_fp0_spclsr3stdE7forwardIT0_Efp1_EEERS1_PT_DpOS4_,comdat
	.weak	_ZNSt16allocator_traitsI24mmaprealloc_populate_verImEE9constructImJcEEEDTcl12_S_constructfp_fp0_spclsr3stdE7forwardIT0_Efp1_EEERS1_PT_DpOS4_ # -- Begin function _ZNSt16allocator_traitsI24mmaprealloc_populate_verImEE9constructImJcEEEDTcl12_S_constructfp_fp0_spclsr3stdE7forwardIT0_Efp1_EEERS1_PT_DpOS4_
	.p2align	4, 0x90
	.type	_ZNSt16allocator_traitsI24mmaprealloc_populate_verImEE9constructImJcEEEDTcl12_S_constructfp_fp0_spclsr3stdE7forwardIT0_Efp1_EEERS1_PT_DpOS4_,@function
_ZNSt16allocator_traitsI24mmaprealloc_populate_verImEE9constructImJcEEEDTcl12_S_constructfp_fp0_spclsr3stdE7forwardIT0_Efp1_EEERS1_PT_DpOS4_: # @_ZNSt16allocator_traitsI24mmaprealloc_populate_verImEE9constructImJcEEEDTcl12_S_constructfp_fp0_spclsr3stdE7forwardIT0_Efp1_EEERS1_PT_DpOS4_
.Lfunc_begin66:
	.loc	6 344 0                 # /usr/lib/gcc/x86_64-linux-gnu/6.3.0/../../../../include/c++/6.3.0/bits/alloc_traits.h:344:0
	.cfi_startproc
# %bb.0:
	pushq	%rbp
	.cfi_def_cfa_offset 16
	.cfi_offset %rbp, -16
	movq	%rsp, %rbp
	.cfi_def_cfa_register %rbp
	subq	$48, %rsp
	movq	%rdi, -8(%rbp)
	movq	%rsi, -16(%rbp)
	movq	%rdx, -24(%rbp)
.Ltmp396:
	.loc	6 344 17 prologue_end   # /usr/lib/gcc/x86_64-linux-gnu/6.3.0/../../../../include/c++/6.3.0/bits/alloc_traits.h:344:17
	movq	-8(%rbp), %rdi
	.loc	6 344 22 is_stmt 0      # /usr/lib/gcc/x86_64-linux-gnu/6.3.0/../../../../include/c++/6.3.0/bits/alloc_traits.h:344:22
	movq	-16(%rbp), %rsi
	.loc	6 344 47                # /usr/lib/gcc/x86_64-linux-gnu/6.3.0/../../../../include/c++/6.3.0/bits/alloc_traits.h:344:47
	movq	-24(%rbp), %rdx
	.loc	6 344 27                # /usr/lib/gcc/x86_64-linux-gnu/6.3.0/../../../../include/c++/6.3.0/bits/alloc_traits.h:344:27
	movq	%rdi, -32(%rbp)         # 8-byte Spill
	movq	%rdx, %rdi
	movq	%rsi, -40(%rbp)         # 8-byte Spill
	callq	_ZSt7forwardIcEOT_RNSt16remove_referenceIS0_E4typeE
	.loc	6 344 4                 # /usr/lib/gcc/x86_64-linux-gnu/6.3.0/../../../../include/c++/6.3.0/bits/alloc_traits.h:344:4
	movq	-32(%rbp), %rdi         # 8-byte Reload
	movq	-40(%rbp), %rsi         # 8-byte Reload
	movq	%rax, %rdx
	callq	_ZNSt16allocator_traitsI24mmaprealloc_populate_verImEE12_S_constructImJcEEENSt9enable_ifIXsr6__and_ISt6__and_IJSt6__not_INS2_18__construct_helperIT_JDpT0_EE4typeEESt16is_constructibleIS8_JSA_EEEEEE5valueEvE4typeERS1_PS8_DpOS9_
	.loc	6 344 60                # /usr/lib/gcc/x86_64-linux-gnu/6.3.0/../../../../include/c++/6.3.0/bits/alloc_traits.h:344:60
	addq	$48, %rsp
	popq	%rbp
	retq
.Ltmp397:
.Lfunc_end66:
	.size	_ZNSt16allocator_traitsI24mmaprealloc_populate_verImEE9constructImJcEEEDTcl12_S_constructfp_fp0_spclsr3stdE7forwardIT0_Efp1_EEERS1_PT_DpOS4_, .Lfunc_end66-_ZNSt16allocator_traitsI24mmaprealloc_populate_verImEE9constructImJcEEEDTcl12_S_constructfp_fp0_spclsr3stdE7forwardIT0_Efp1_EEERS1_PT_DpOS4_
	.cfi_endproc
                                        # -- End function
	.section	.text._ZN16allocator_traitsI24mmaprealloc_populate_verImEE10reallocateERS1_Pmmm,"axG",@progbits,_ZN16allocator_traitsI24mmaprealloc_populate_verImEE10reallocateERS1_Pmmm,comdat
	.weak	_ZN16allocator_traitsI24mmaprealloc_populate_verImEE10reallocateERS1_Pmmm # -- Begin function _ZN16allocator_traitsI24mmaprealloc_populate_verImEE10reallocateERS1_Pmmm
	.p2align	4, 0x90
	.type	_ZN16allocator_traitsI24mmaprealloc_populate_verImEE10reallocateERS1_Pmmm,@function
_ZN16allocator_traitsI24mmaprealloc_populate_verImEE10reallocateERS1_Pmmm: # @_ZN16allocator_traitsI24mmaprealloc_populate_verImEE10reallocateERS1_Pmmm
.Lfunc_begin67:
	.loc	2 137 0 is_stmt 1       # main.cc:137:0
	.cfi_startproc
# %bb.0:
	pushq	%rbp
	.cfi_def_cfa_offset 16
	.cfi_offset %rbp, -16
	movq	%rsp, %rbp
	.cfi_def_cfa_register %rbp
	subq	$48, %rsp
	movq	%rdi, -8(%rbp)
	movq	%rsi, -16(%rbp)
	movq	%rdx, -24(%rbp)
	movq	%rcx, -32(%rbp)
.Ltmp398:
	.loc	2 139 24 prologue_end   # main.cc:139:24
	movq	-8(%rbp), %rcx
	.loc	2 139 41 is_stmt 0      # main.cc:139:41
	movq	-16(%rbp), %rsi
	.loc	2 139 51                # main.cc:139:51
	movq	-24(%rbp), %rdx
	.loc	2 139 61                # main.cc:139:61
	movq	-32(%rbp), %rdi
	.loc	2 139 30                # main.cc:139:30
	movq	%rdi, -40(%rbp)         # 8-byte Spill
	movq	%rcx, %rdi
	movq	-40(%rbp), %rcx         # 8-byte Reload
	callq	_ZNK11mmapreallocImE10reallocateEPmmm
	.loc	2 139 17                # main.cc:139:17
	addq	$48, %rsp
	popq	%rbp
	retq
.Ltmp399:
.Lfunc_end67:
	.size	_ZN16allocator_traitsI24mmaprealloc_populate_verImEE10reallocateERS1_Pmmm, .Lfunc_end67-_ZN16allocator_traitsI24mmaprealloc_populate_verImEE10reallocateERS1_Pmmm
	.cfi_endproc
                                        # -- End function
	.section	.text._ZNSt16allocator_traitsI24mmaprealloc_populate_verImEE8allocateERS1_m,"axG",@progbits,_ZNSt16allocator_traitsI24mmaprealloc_populate_verImEE8allocateERS1_m,comdat
	.weak	_ZNSt16allocator_traitsI24mmaprealloc_populate_verImEE8allocateERS1_m # -- Begin function _ZNSt16allocator_traitsI24mmaprealloc_populate_verImEE8allocateERS1_m
	.p2align	4, 0x90
	.type	_ZNSt16allocator_traitsI24mmaprealloc_populate_verImEE8allocateERS1_m,@function
_ZNSt16allocator_traitsI24mmaprealloc_populate_verImEE8allocateERS1_m: # @_ZNSt16allocator_traitsI24mmaprealloc_populate_verImEE8allocateERS1_m
.Lfunc_begin68:
	.loc	6 301 0 is_stmt 1       # /usr/lib/gcc/x86_64-linux-gnu/6.3.0/../../../../include/c++/6.3.0/bits/alloc_traits.h:301:0
	.cfi_startproc
# %bb.0:
	pushq	%rbp
	.cfi_def_cfa_offset 16
	.cfi_offset %rbp, -16
	movq	%rsp, %rbp
	.cfi_def_cfa_register %rbp
	subq	$16, %rsp
	movq	%rdi, -8(%rbp)
	movq	%rsi, -16(%rbp)
.Ltmp400:
	.loc	6 301 16 prologue_end   # /usr/lib/gcc/x86_64-linux-gnu/6.3.0/../../../../include/c++/6.3.0/bits/alloc_traits.h:301:16
	movq	-8(%rbp), %rdi
	.loc	6 301 29 is_stmt 0      # /usr/lib/gcc/x86_64-linux-gnu/6.3.0/../../../../include/c++/6.3.0/bits/alloc_traits.h:301:29
	movq	-16(%rbp), %rsi
	.loc	6 301 20                # /usr/lib/gcc/x86_64-linux-gnu/6.3.0/../../../../include/c++/6.3.0/bits/alloc_traits.h:301:20
	callq	_ZNK24mmaprealloc_populate_verImE8allocateEm
	.loc	6 301 9                 # /usr/lib/gcc/x86_64-linux-gnu/6.3.0/../../../../include/c++/6.3.0/bits/alloc_traits.h:301:9
	addq	$16, %rsp
	popq	%rbp
	retq
.Ltmp401:
.Lfunc_end68:
	.size	_ZNSt16allocator_traitsI24mmaprealloc_populate_verImEE8allocateERS1_m, .Lfunc_end68-_ZNSt16allocator_traitsI24mmaprealloc_populate_verImEE8allocateERS1_m
	.cfi_endproc
                                        # -- End function
	.section	.text._ZNK24mmaprealloc_populate_verImE8allocateEm,"axG",@progbits,_ZNK24mmaprealloc_populate_verImE8allocateEm,comdat
	.weak	_ZNK24mmaprealloc_populate_verImE8allocateEm # -- Begin function _ZNK24mmaprealloc_populate_verImE8allocateEm
	.p2align	4, 0x90
	.type	_ZNK24mmaprealloc_populate_verImE8allocateEm,@function
_ZNK24mmaprealloc_populate_verImE8allocateEm: # @_ZNK24mmaprealloc_populate_verImE8allocateEm
.Lfunc_begin69:
	.loc	2 112 0 is_stmt 1       # main.cc:112:0
	.cfi_startproc
# %bb.0:
	pushq	%rbp
	.cfi_def_cfa_offset 16
	.cfi_offset %rbp, -16
	movq	%rsp, %rbp
	.cfi_def_cfa_register %rbp
	subq	$32, %rsp
	movl	$32802, %edx            # imm = 0x8022
	movq	%rdi, -8(%rbp)
	movq	%rsi, -16(%rbp)
	movq	-8(%rbp), %rsi
.Ltmp402:
	.loc	2 113 50 prologue_end   # main.cc:113:50
	movq	-16(%rbp), %rdi
	.loc	2 113 36 is_stmt 0      # main.cc:113:36
	movq	%rdi, -24(%rbp)         # 8-byte Spill
	movq	%rsi, %rdi
	movq	-24(%rbp), %rsi         # 8-byte Reload
	callq	_ZNK11mmapreallocImE13allocate_implEmi
	.loc	2 113 13                # main.cc:113:13
	addq	$32, %rsp
	popq	%rbp
	retq
.Ltmp403:
.Lfunc_end69:
	.size	_ZNK24mmaprealloc_populate_verImE8allocateEm, .Lfunc_end69-_ZNK24mmaprealloc_populate_verImE8allocateEm
	.cfi_endproc
                                        # -- End function
	.section	.text._ZNSt16allocator_traitsI24mmaprealloc_populate_verImEE12_S_constructImJcEEENSt9enable_ifIXsr6__and_ISt6__and_IJSt6__not_INS2_18__construct_helperIT_JDpT0_EE4typeEESt16is_constructibleIS8_JSA_EEEEEE5valueEvE4typeERS1_PS8_DpOS9_,"axG",@progbits,_ZNSt16allocator_traitsI24mmaprealloc_populate_verImEE12_S_constructImJcEEENSt9enable_ifIXsr6__and_ISt6__and_IJSt6__not_INS2_18__construct_helperIT_JDpT0_EE4typeEESt16is_constructibleIS8_JSA_EEEEEE5valueEvE4typeERS1_PS8_DpOS9_,comdat
	.weak	_ZNSt16allocator_traitsI24mmaprealloc_populate_verImEE12_S_constructImJcEEENSt9enable_ifIXsr6__and_ISt6__and_IJSt6__not_INS2_18__construct_helperIT_JDpT0_EE4typeEESt16is_constructibleIS8_JSA_EEEEEE5valueEvE4typeERS1_PS8_DpOS9_ # -- Begin function _ZNSt16allocator_traitsI24mmaprealloc_populate_verImEE12_S_constructImJcEEENSt9enable_ifIXsr6__and_ISt6__and_IJSt6__not_INS2_18__construct_helperIT_JDpT0_EE4typeEESt16is_constructibleIS8_JSA_EEEEEE5valueEvE4typeERS1_PS8_DpOS9_
	.p2align	4, 0x90
	.type	_ZNSt16allocator_traitsI24mmaprealloc_populate_verImEE12_S_constructImJcEEENSt9enable_ifIXsr6__and_ISt6__and_IJSt6__not_INS2_18__construct_helperIT_JDpT0_EE4typeEESt16is_constructibleIS8_JSA_EEEEEE5valueEvE4typeERS1_PS8_DpOS9_,@function
_ZNSt16allocator_traitsI24mmaprealloc_populate_verImEE12_S_constructImJcEEENSt9enable_ifIXsr6__and_ISt6__and_IJSt6__not_INS2_18__construct_helperIT_JDpT0_EE4typeEESt16is_constructibleIS8_JSA_EEEEEE5valueEvE4typeERS1_PS8_DpOS9_: # @_ZNSt16allocator_traitsI24mmaprealloc_populate_verImEE12_S_constructImJcEEENSt9enable_ifIXsr6__and_ISt6__and_IJSt6__not_INS2_18__construct_helperIT_JDpT0_EE4typeEESt16is_constructibleIS8_JSA_EEEEEE5valueEvE4typeERS1_PS8_DpOS9_
.Lfunc_begin70:
	.loc	6 250 0 is_stmt 1       # /usr/lib/gcc/x86_64-linux-gnu/6.3.0/../../../../include/c++/6.3.0/bits/alloc_traits.h:250:0
	.cfi_startproc
# %bb.0:
	pushq	%rbp
	.cfi_def_cfa_offset 16
	.cfi_offset %rbp, -16
	movq	%rsp, %rbp
	.cfi_def_cfa_register %rbp
	subq	$32, %rsp
	movq	%rdi, -8(%rbp)
	movq	%rsi, -16(%rbp)
	movq	%rdx, -24(%rbp)
.Ltmp404:
	.loc	6 250 17 prologue_end   # /usr/lib/gcc/x86_64-linux-gnu/6.3.0/../../../../include/c++/6.3.0/bits/alloc_traits.h:250:17
	movq	-16(%rbp), %rdx
	.loc	6 250 46 is_stmt 0      # /usr/lib/gcc/x86_64-linux-gnu/6.3.0/../../../../include/c++/6.3.0/bits/alloc_traits.h:250:46
	movq	-24(%rbp), %rdi
	.loc	6 250 26                # /usr/lib/gcc/x86_64-linux-gnu/6.3.0/../../../../include/c++/6.3.0/bits/alloc_traits.h:250:26
	movq	%rdx, -32(%rbp)         # 8-byte Spill
	callq	_ZSt7forwardIcEOT_RNSt16remove_referenceIS0_E4typeE
	movsbq	(%rax), %rax
	.loc	6 250 4                 # /usr/lib/gcc/x86_64-linux-gnu/6.3.0/../../../../include/c++/6.3.0/bits/alloc_traits.h:250:4
	movq	-32(%rbp), %rdx         # 8-byte Reload
	movq	%rax, (%rdx)
	.loc	6 250 59                # /usr/lib/gcc/x86_64-linux-gnu/6.3.0/../../../../include/c++/6.3.0/bits/alloc_traits.h:250:59
	addq	$32, %rsp
	popq	%rbp
	retq
.Ltmp405:
.Lfunc_end70:
	.size	_ZNSt16allocator_traitsI24mmaprealloc_populate_verImEE12_S_constructImJcEEENSt9enable_ifIXsr6__and_ISt6__and_IJSt6__not_INS2_18__construct_helperIT_JDpT0_EE4typeEESt16is_constructibleIS8_JSA_EEEEEE5valueEvE4typeERS1_PS8_DpOS9_, .Lfunc_end70-_ZNSt16allocator_traitsI24mmaprealloc_populate_verImEE12_S_constructImJcEEENSt9enable_ifIXsr6__and_ISt6__and_IJSt6__not_INS2_18__construct_helperIT_JDpT0_EE4typeEESt16is_constructibleIS8_JSA_EEEEEE5valueEvE4typeERS1_PS8_DpOS9_
	.cfi_endproc
                                        # -- End function
	.section	.text._ZNSt16allocator_traitsI24mmaprealloc_populate_verImEE10deallocateERS1_Pmm,"axG",@progbits,_ZNSt16allocator_traitsI24mmaprealloc_populate_verImEE10deallocateERS1_Pmm,comdat
	.weak	_ZNSt16allocator_traitsI24mmaprealloc_populate_verImEE10deallocateERS1_Pmm # -- Begin function _ZNSt16allocator_traitsI24mmaprealloc_populate_verImEE10deallocateERS1_Pmm
	.p2align	4, 0x90
	.type	_ZNSt16allocator_traitsI24mmaprealloc_populate_verImEE10deallocateERS1_Pmm,@function
_ZNSt16allocator_traitsI24mmaprealloc_populate_verImEE10deallocateERS1_Pmm: # @_ZNSt16allocator_traitsI24mmaprealloc_populate_verImEE10deallocateERS1_Pmm
.Lfunc_begin71:
	.loc	6 328 0 is_stmt 1       # /usr/lib/gcc/x86_64-linux-gnu/6.3.0/../../../../include/c++/6.3.0/bits/alloc_traits.h:328:0
	.cfi_startproc
# %bb.0:
	pushq	%rbp
	.cfi_def_cfa_offset 16
	.cfi_offset %rbp, -16
	movq	%rsp, %rbp
	.cfi_def_cfa_register %rbp
	subq	$32, %rsp
	movq	%rdi, -8(%rbp)
	movq	%rsi, -16(%rbp)
	movq	%rdx, -24(%rbp)
.Ltmp406:
	.loc	6 328 9 prologue_end    # /usr/lib/gcc/x86_64-linux-gnu/6.3.0/../../../../include/c++/6.3.0/bits/alloc_traits.h:328:9
	movq	-8(%rbp), %rdx
	.loc	6 328 24 is_stmt 0      # /usr/lib/gcc/x86_64-linux-gnu/6.3.0/../../../../include/c++/6.3.0/bits/alloc_traits.h:328:24
	movq	-16(%rbp), %rsi
	.loc	6 328 29                # /usr/lib/gcc/x86_64-linux-gnu/6.3.0/../../../../include/c++/6.3.0/bits/alloc_traits.h:328:29
	movq	-24(%rbp), %rdi
	.loc	6 328 13                # /usr/lib/gcc/x86_64-linux-gnu/6.3.0/../../../../include/c++/6.3.0/bits/alloc_traits.h:328:13
	movq	%rdi, -32(%rbp)         # 8-byte Spill
	movq	%rdx, %rdi
	movq	-32(%rbp), %rdx         # 8-byte Reload
	callq	_ZNK11mmapreallocImE10deallocateEPmm
	.loc	6 328 35                # /usr/lib/gcc/x86_64-linux-gnu/6.3.0/../../../../include/c++/6.3.0/bits/alloc_traits.h:328:35
	addq	$32, %rsp
	popq	%rbp
	retq
.Ltmp407:
.Lfunc_end71:
	.size	_ZNSt16allocator_traitsI24mmaprealloc_populate_verImEE10deallocateERS1_Pmm, .Lfunc_end71-_ZNSt16allocator_traitsI24mmaprealloc_populate_verImEE10deallocateERS1_Pmm
	.cfi_endproc
                                        # -- End function
	.section	.text.startup,"ax",@progbits
	.p2align	4, 0x90         # -- Begin function _GLOBAL__sub_I_main.cc
	.type	_GLOBAL__sub_I_main.cc,@function
_GLOBAL__sub_I_main.cc:                 # @_GLOBAL__sub_I_main.cc
.Lfunc_begin72:
	.loc	2 0 0 is_stmt 1         # main.cc:0:0
	.cfi_startproc
# %bb.0:
	pushq	%rbp
	.cfi_def_cfa_offset 16
	.cfi_offset %rbp, -16
	movq	%rsp, %rbp
	.cfi_def_cfa_register %rbp
.Ltmp408:
	.loc	2 0 0 prologue_end      # main.cc:0:0
	callq	__cxx_global_var_init
	.loc	2 0 0 is_stmt 0         # main.cc:0:0
	callq	__cxx_global_var_init.1
	.loc	2 0 0                   # main.cc:0:0
	callq	__cxx_global_var_init.2
	.loc	2 0 0                   # main.cc:0:0
	callq	__cxx_global_var_init.4
	.loc	2 0 0                   # main.cc:0:0
	callq	__cxx_global_var_init.6
	popq	%rbp
	retq
.Ltmp409:
.Lfunc_end72:
	.size	_GLOBAL__sub_I_main.cc, .Lfunc_end72-_GLOBAL__sub_I_main.cc
	.cfi_endproc
                                        # -- End function
	.type	_ZN9benchmark8internalL18stream_init_anchorE,@object # @_ZN9benchmark8internalL18stream_init_anchorE
	.local	_ZN9benchmark8internalL18stream_init_anchorE
	.comm	_ZN9benchmark8internalL18stream_init_anchorE,4,4
	.type	_ZL21_benchmark_2BM_vector,@object # @_ZL21_benchmark_2BM_vector
	.local	_ZL21_benchmark_2BM_vector
	.comm	_ZL21_benchmark_2BM_vector,8,8
	.type	.L.str,@object          # @.str
	.section	.rodata.str1.1,"aMS",@progbits,1
.L.str:
	.asciz	"BM_vector<vector<char>>"
	.size	.L.str, 24

	.type	_ZL21_benchmark_3BM_vector,@object # @_ZL21_benchmark_3BM_vector
	.local	_ZL21_benchmark_3BM_vector
	.comm	_ZL21_benchmark_3BM_vector,8,8
	.type	.L.str.3,@object        # @.str.3
.L.str.3:
	.asciz	"BM_vector<vector<std::uint64_t, mrealloc<std::uint64_t>>>"
	.size	.L.str.3, 58

	.type	_ZL21_benchmark_4BM_vector,@object # @_ZL21_benchmark_4BM_vector
	.local	_ZL21_benchmark_4BM_vector
	.comm	_ZL21_benchmark_4BM_vector,8,8
	.type	.L.str.5,@object        # @.str.5
.L.str.5:
	.asciz	"BM_vector<vector<std::uint64_t, mmaprealloc<std::uint64_t>>>"
	.size	.L.str.5, 61

	.type	_ZL21_benchmark_5BM_vector,@object # @_ZL21_benchmark_5BM_vector
	.local	_ZL21_benchmark_5BM_vector
	.comm	_ZL21_benchmark_5BM_vector,8,8
	.type	.L.str.7,@object        # @.str.7
.L.str.7:
	.asciz	"BM_vector<vector<std::uint64_t, mmaprealloc_populate_ver<std::uint64_t>>>"
	.size	.L.str.7, 74

	.type	.L.str.8,@object        # @.str.8
.L.str.8:
	.asciz	"range_.size() > pos"
	.size	.L.str.8, 20

	.type	.L.str.9,@object        # @.str.9
.L.str.9:
	.asciz	"/usr/local/include/benchmark/benchmark.h"
	.size	.L.str.9, 41

	.type	.L__PRETTY_FUNCTION__._ZNK9benchmark5State5rangeEm,@object # @__PRETTY_FUNCTION__._ZNK9benchmark5State5rangeEm
.L__PRETTY_FUNCTION__._ZNK9benchmark5State5rangeEm:
	.asciz	"int benchmark::State::range(std::size_t) const"
	.size	.L__PRETTY_FUNCTION__._ZNK9benchmark5State5rangeEm, 47

	.type	.L.str.10,@object       # @.str.10
.L.str.10:
	.asciz	"cached_ > 0"
	.size	.L.str.10, 12

	.type	.L__PRETTY_FUNCTION__._ZN9benchmark5State13StateIteratorppEv,@object # @__PRETTY_FUNCTION__._ZN9benchmark5State13StateIteratorppEv
.L__PRETTY_FUNCTION__._ZN9benchmark5State13StateIteratorppEv:
	.asciz	"benchmark::State::StateIterator &benchmark::State::StateIterator::operator++()"
	.size	.L__PRETTY_FUNCTION__._ZN9benchmark5State13StateIteratorppEv, 79

	.type	.L.str.11,@object       # @.str.11
.L.str.11:
	.asciz	"_errno == assert_val"
	.size	.L.str.11, 21

	.type	.L.str.12,@object       # @.str.12
.L.str.12:
	.asciz	"main.cc"
	.size	.L.str.12, 8

	.type	.L__PRETTY_FUNCTION__._ZN11mmapreallocImE4failEi,@object # @__PRETTY_FUNCTION__._ZN11mmapreallocImE4failEi
.L__PRETTY_FUNCTION__._ZN11mmapreallocImE4failEi:
	.asciz	"static void mmaprealloc<unsigned long>::fail(int) [T = unsigned long]"
	.size	.L__PRETTY_FUNCTION__._ZN11mmapreallocImE4failEi, 70

	.type	.L.str.13,@object       # @.str.13
.L.str.13:
	.asciz	"linux::munmap(ptr, len) == 0"
	.size	.L.str.13, 29

	.type	.L__PRETTY_FUNCTION__._ZNK11mmapreallocImE10deallocateEPmm,@object # @__PRETTY_FUNCTION__._ZNK11mmapreallocImE10deallocateEPmm
.L__PRETTY_FUNCTION__._ZNK11mmapreallocImE10deallocateEPmm:
	.asciz	"void mmaprealloc<unsigned long>::deallocate(mmaprealloc::pointer, std::size_t) const [T = unsigned long]"
	.size	.L__PRETTY_FUNCTION__._ZNK11mmapreallocImE10deallocateEPmm, 105

	.section	.init_array,"aw",@init_array
	.p2align	3
	.quad	_GLOBAL__sub_I_main.cc
	.file	41 "<stdin>"